ARM GAS  C:\Users\sinow\AppData\Local\Temp\ccPiF27t.s 			page 1


   1              		.syntax unified
   2              		.cpu cortex-m3
   3              		.fpu softvfp
   4              		.eabi_attribute 20, 1
   5              		.eabi_attribute 21, 1
   6              		.eabi_attribute 23, 3
   7              		.eabi_attribute 24, 1
   8              		.eabi_attribute 25, 1
   9              		.eabi_attribute 26, 1
  10              		.eabi_attribute 30, 1
  11              		.eabi_attribute 34, 1
  12              		.eabi_attribute 18, 4
  13              		.thumb
  14              		.syntax unified
  15              		.file	"CapSense_CSD_CSHL.c"
  16              		.text
  17              	.Ltext0:
  18              		.cfi_sections	.debug_frame
  19              		.section	.text.CapSense_CSD_BaseInit,"ax",%progbits
  20              		.align	2
  21              		.global	CapSense_CSD_BaseInit
  22              		.thumb
  23              		.thumb_func
  24              		.type	CapSense_CSD_BaseInit, %function
  25              	CapSense_CSD_BaseInit:
  26              	.LFB0:
  27              		.file 1 "Generated_Source\\PSoC5\\CapSense_CSD_CSHL.c"
   1:Generated_Source\PSoC5/CapSense_CSD_CSHL.c **** /*******************************************************************************
   2:Generated_Source\PSoC5/CapSense_CSD_CSHL.c **** * File Name: CapSense_CSD_CSHL.c
   3:Generated_Source\PSoC5/CapSense_CSD_CSHL.c **** * Version 3.50
   4:Generated_Source\PSoC5/CapSense_CSD_CSHL.c **** *
   5:Generated_Source\PSoC5/CapSense_CSD_CSHL.c **** * Description:
   6:Generated_Source\PSoC5/CapSense_CSD_CSHL.c **** *  This file provides the source code to the High Level APIs for the CapSesne
   7:Generated_Source\PSoC5/CapSense_CSD_CSHL.c **** *  CSD component.
   8:Generated_Source\PSoC5/CapSense_CSD_CSHL.c **** *
   9:Generated_Source\PSoC5/CapSense_CSD_CSHL.c **** * Note:
  10:Generated_Source\PSoC5/CapSense_CSD_CSHL.c **** *
  11:Generated_Source\PSoC5/CapSense_CSD_CSHL.c **** ********************************************************************************
  12:Generated_Source\PSoC5/CapSense_CSD_CSHL.c **** * Copyright 2008-2013, Cypress Semiconductor Corporation.  All rights reserved.
  13:Generated_Source\PSoC5/CapSense_CSD_CSHL.c **** * You may use this file only in accordance with the license, terms, conditions,
  14:Generated_Source\PSoC5/CapSense_CSD_CSHL.c **** * disclaimers, and limitations in the end user license agreement accompanying
  15:Generated_Source\PSoC5/CapSense_CSD_CSHL.c **** * the software package with which this file was provided.
  16:Generated_Source\PSoC5/CapSense_CSD_CSHL.c **** *******************************************************************************/
  17:Generated_Source\PSoC5/CapSense_CSD_CSHL.c **** 
  18:Generated_Source\PSoC5/CapSense_CSD_CSHL.c **** #include "CapSense_CSD_CSHL.h"
  19:Generated_Source\PSoC5/CapSense_CSD_CSHL.c **** 
  20:Generated_Source\PSoC5/CapSense_CSD_CSHL.c **** /* Storage of filters data */
  21:Generated_Source\PSoC5/CapSense_CSD_CSHL.c **** #if ( (CapSense_CSD_RAW_FILTER_MASK & CapSense_CSD_MEDIAN_FILTER) | \
  22:Generated_Source\PSoC5/CapSense_CSD_CSHL.c ****       (CapSense_CSD_RAW_FILTER_MASK & CapSense_CSD_AVERAGING_FILTER) )
  23:Generated_Source\PSoC5/CapSense_CSD_CSHL.c **** 
  24:Generated_Source\PSoC5/CapSense_CSD_CSHL.c ****     uint16 CapSense_CSD_rawFilterData1[CapSense_CSD_TOTAL_SENSOR_COUNT];
  25:Generated_Source\PSoC5/CapSense_CSD_CSHL.c ****     uint16 CapSense_CSD_rawFilterData2[CapSense_CSD_TOTAL_SENSOR_COUNT];
  26:Generated_Source\PSoC5/CapSense_CSD_CSHL.c **** 
  27:Generated_Source\PSoC5/CapSense_CSD_CSHL.c **** #elif ( (CapSense_CSD_RAW_FILTER_MASK & CapSense_CSD_IIR2_FILTER)   | \
  28:Generated_Source\PSoC5/CapSense_CSD_CSHL.c ****         (CapSense_CSD_RAW_FILTER_MASK & CapSense_CSD_IIR4_FILTER)   | \
  29:Generated_Source\PSoC5/CapSense_CSD_CSHL.c ****         (CapSense_CSD_RAW_FILTER_MASK & CapSense_CSD_JITTER_FILTER) | \
  30:Generated_Source\PSoC5/CapSense_CSD_CSHL.c ****         (CapSense_CSD_RAW_FILTER_MASK & CapSense_CSD_IIR8_FILTER)   | \
ARM GAS  C:\Users\sinow\AppData\Local\Temp\ccPiF27t.s 			page 2


  31:Generated_Source\PSoC5/CapSense_CSD_CSHL.c ****         (CapSense_CSD_RAW_FILTER_MASK & CapSense_CSD_IIR16_FILTER) )
  32:Generated_Source\PSoC5/CapSense_CSD_CSHL.c ****         
  33:Generated_Source\PSoC5/CapSense_CSD_CSHL.c ****     uint16 CapSense_CSD_rawFilterData1[CapSense_CSD_TOTAL_SENSOR_COUNT];
  34:Generated_Source\PSoC5/CapSense_CSD_CSHL.c **** 
  35:Generated_Source\PSoC5/CapSense_CSD_CSHL.c **** #else
  36:Generated_Source\PSoC5/CapSense_CSD_CSHL.c ****     /* No Raw filters */
  37:Generated_Source\PSoC5/CapSense_CSD_CSHL.c **** #endif  /* ( (CapSense_CSD_RAW_FILTER_MASK & CapSense_CSD_MEDIAN_FILTER) || \
  38:Generated_Source\PSoC5/CapSense_CSD_CSHL.c ****         *    (CapSense_CSD_RAW_FILTER_MASK & CapSense_CSD_AVERAGING_FILTER) )
  39:Generated_Source\PSoC5/CapSense_CSD_CSHL.c ****         */
  40:Generated_Source\PSoC5/CapSense_CSD_CSHL.c **** 
  41:Generated_Source\PSoC5/CapSense_CSD_CSHL.c **** uint16 CapSense_CSD_sensorBaseline[CapSense_CSD_TOTAL_SENSOR_COUNT];
  42:Generated_Source\PSoC5/CapSense_CSD_CSHL.c **** uint8 CapSense_CSD_sensorBaselineLow[CapSense_CSD_TOTAL_SENSOR_COUNT];
  43:Generated_Source\PSoC5/CapSense_CSD_CSHL.c **** uint16 CapSense_CSD_sensorSignal[CapSense_CSD_TOTAL_SENSOR_COUNT];
  44:Generated_Source\PSoC5/CapSense_CSD_CSHL.c **** uint8 CapSense_CSD_sensorOnMask[(((CapSense_CSD_TOTAL_SENSOR_COUNT - 1u) / 8u) + 1u)];
  45:Generated_Source\PSoC5/CapSense_CSD_CSHL.c **** 
  46:Generated_Source\PSoC5/CapSense_CSD_CSHL.c **** uint8 CapSense_CSD_lowBaselineResetCnt[CapSense_CSD_TOTAL_SENSOR_COUNT];
  47:Generated_Source\PSoC5/CapSense_CSD_CSHL.c **** 
  48:Generated_Source\PSoC5/CapSense_CSD_CSHL.c **** const uint16 CYCODE CapSense_CSD_fingerThreshold[] = {
  49:Generated_Source\PSoC5/CapSense_CSD_CSHL.c ****     84u, 
  50:Generated_Source\PSoC5/CapSense_CSD_CSHL.c **** };
  51:Generated_Source\PSoC5/CapSense_CSD_CSHL.c **** 
  52:Generated_Source\PSoC5/CapSense_CSD_CSHL.c **** const uint16 CYCODE CapSense_CSD_noiseThreshold[] = {
  53:Generated_Source\PSoC5/CapSense_CSD_CSHL.c ****     42u, 
  54:Generated_Source\PSoC5/CapSense_CSD_CSHL.c **** };
  55:Generated_Source\PSoC5/CapSense_CSD_CSHL.c **** 
  56:Generated_Source\PSoC5/CapSense_CSD_CSHL.c **** const uint16 CYCODE CapSense_CSD_hysteresis[] = {
  57:Generated_Source\PSoC5/CapSense_CSD_CSHL.c ****     0u, 
  58:Generated_Source\PSoC5/CapSense_CSD_CSHL.c **** };
  59:Generated_Source\PSoC5/CapSense_CSD_CSHL.c **** 
  60:Generated_Source\PSoC5/CapSense_CSD_CSHL.c **** const uint8 CYCODE CapSense_CSD_debounce[] = {
  61:Generated_Source\PSoC5/CapSense_CSD_CSHL.c ****     1u, 
  62:Generated_Source\PSoC5/CapSense_CSD_CSHL.c **** };
  63:Generated_Source\PSoC5/CapSense_CSD_CSHL.c **** 
  64:Generated_Source\PSoC5/CapSense_CSD_CSHL.c **** uint8 CapSense_CSD_debounceCounter[] = {
  65:Generated_Source\PSoC5/CapSense_CSD_CSHL.c ****     0u, 
  66:Generated_Source\PSoC5/CapSense_CSD_CSHL.c **** };
  67:Generated_Source\PSoC5/CapSense_CSD_CSHL.c **** 
  68:Generated_Source\PSoC5/CapSense_CSD_CSHL.c **** const uint8 CYCODE CapSense_CSD_rawDataIndex[] = {
  69:Generated_Source\PSoC5/CapSense_CSD_CSHL.c ****     0u, /* LinearSlider0__LS */
  70:Generated_Source\PSoC5/CapSense_CSD_CSHL.c **** 
  71:Generated_Source\PSoC5/CapSense_CSD_CSHL.c **** };
  72:Generated_Source\PSoC5/CapSense_CSD_CSHL.c **** 
  73:Generated_Source\PSoC5/CapSense_CSD_CSHL.c **** const uint8 CYCODE CapSense_CSD_numberOfSensors[] = {
  74:Generated_Source\PSoC5/CapSense_CSD_CSHL.c ****     5u, /* LinearSlider0__LS */
  75:Generated_Source\PSoC5/CapSense_CSD_CSHL.c **** 
  76:Generated_Source\PSoC5/CapSense_CSD_CSHL.c **** };
  77:Generated_Source\PSoC5/CapSense_CSD_CSHL.c **** 
  78:Generated_Source\PSoC5/CapSense_CSD_CSHL.c **** const uint16 CYCODE CapSense_CSD_centroidMult[] = {
  79:Generated_Source\PSoC5/CapSense_CSD_CSHL.c ****     6400u, 
  80:Generated_Source\PSoC5/CapSense_CSD_CSHL.c **** };
  81:Generated_Source\PSoC5/CapSense_CSD_CSHL.c **** 
  82:Generated_Source\PSoC5/CapSense_CSD_CSHL.c **** const uint8 CYCODE CapSense_CSD_posFiltersMask[] = {
  83:Generated_Source\PSoC5/CapSense_CSD_CSHL.c ****     0x8u, 
  84:Generated_Source\PSoC5/CapSense_CSD_CSHL.c **** };
  85:Generated_Source\PSoC5/CapSense_CSD_CSHL.c **** 
  86:Generated_Source\PSoC5/CapSense_CSD_CSHL.c **** uint8 CapSense_CSD_posFiltersData[] = {
  87:Generated_Source\PSoC5/CapSense_CSD_CSHL.c ****     1u, 0u, 0u, 
ARM GAS  C:\Users\sinow\AppData\Local\Temp\ccPiF27t.s 			page 3


  88:Generated_Source\PSoC5/CapSense_CSD_CSHL.c **** };
  89:Generated_Source\PSoC5/CapSense_CSD_CSHL.c **** 
  90:Generated_Source\PSoC5/CapSense_CSD_CSHL.c **** 
  91:Generated_Source\PSoC5/CapSense_CSD_CSHL.c **** 
  92:Generated_Source\PSoC5/CapSense_CSD_CSHL.c **** 
  93:Generated_Source\PSoC5/CapSense_CSD_CSHL.c **** /*******************************************************************************
  94:Generated_Source\PSoC5/CapSense_CSD_CSHL.c **** * Function Name: CapSense_CSD_BaseInit
  95:Generated_Source\PSoC5/CapSense_CSD_CSHL.c **** ********************************************************************************
  96:Generated_Source\PSoC5/CapSense_CSD_CSHL.c **** *
  97:Generated_Source\PSoC5/CapSense_CSD_CSHL.c **** * Summary:
  98:Generated_Source\PSoC5/CapSense_CSD_CSHL.c **** *  Loads the CapSense_CSD_sensorBaseline[sensor] array element with an 
  99:Generated_Source\PSoC5/CapSense_CSD_CSHL.c **** *  initial value which is equal to raw count value. 
 100:Generated_Source\PSoC5/CapSense_CSD_CSHL.c **** *  Resets to zero CapSense_CSD_sensorBaselineLow[sensor] and 
 101:Generated_Source\PSoC5/CapSense_CSD_CSHL.c **** *  CapSense_CSD_sensorSignal[sensor] array element.
 102:Generated_Source\PSoC5/CapSense_CSD_CSHL.c **** *  Loads CapSense_CSD_debounceCounter[sensor] array element with initial 
 103:Generated_Source\PSoC5/CapSense_CSD_CSHL.c **** *  value equal CapSense_CSD_debounce[].
 104:Generated_Source\PSoC5/CapSense_CSD_CSHL.c **** *  Loads the CapSense_CSD_rawFilterData2[sensor] and 
 105:Generated_Source\PSoC5/CapSense_CSD_CSHL.c **** *  CapSense_CSD_rawFilterData2[sensor] array element with an 
 106:Generated_Source\PSoC5/CapSense_CSD_CSHL.c **** *  initial value which is equal raw count value if raw data filter is enabled.
 107:Generated_Source\PSoC5/CapSense_CSD_CSHL.c **** *
 108:Generated_Source\PSoC5/CapSense_CSD_CSHL.c **** * Parameters:
 109:Generated_Source\PSoC5/CapSense_CSD_CSHL.c **** *  sensor:  Sensor number.
 110:Generated_Source\PSoC5/CapSense_CSD_CSHL.c **** *
 111:Generated_Source\PSoC5/CapSense_CSD_CSHL.c **** * Return:
 112:Generated_Source\PSoC5/CapSense_CSD_CSHL.c **** *  None
 113:Generated_Source\PSoC5/CapSense_CSD_CSHL.c **** *
 114:Generated_Source\PSoC5/CapSense_CSD_CSHL.c **** * Global Variables:
 115:Generated_Source\PSoC5/CapSense_CSD_CSHL.c **** *  CapSense_CSD_sensorBaseline[]    - used to store baseline value.
 116:Generated_Source\PSoC5/CapSense_CSD_CSHL.c **** *  CapSense_CSD_sensorBaselineLow[] - used to store fraction byte of 
 117:Generated_Source\PSoC5/CapSense_CSD_CSHL.c **** *  baseline value.
 118:Generated_Source\PSoC5/CapSense_CSD_CSHL.c **** *  CapSense_CSD_sensorSignal[]      - used to store diffence between 
 119:Generated_Source\PSoC5/CapSense_CSD_CSHL.c **** *  current value of raw data and previous value of baseline.
 120:Generated_Source\PSoC5/CapSense_CSD_CSHL.c **** *  CapSense_CSD_debounceCounter[]   - used to store current debounce 
 121:Generated_Source\PSoC5/CapSense_CSD_CSHL.c **** *  counter of sensor. Widget which has this parameter are buttons, matrix 
 122:Generated_Source\PSoC5/CapSense_CSD_CSHL.c **** *  buttons, proximity, guard. All other widgets haven't debounce parameter
 123:Generated_Source\PSoC5/CapSense_CSD_CSHL.c **** *  and use the last element of this array with value 0 (it means no debounce).
 124:Generated_Source\PSoC5/CapSense_CSD_CSHL.c **** *  CapSense_CSD_rawFilterData1[]    - used to store previous sample of 
 125:Generated_Source\PSoC5/CapSense_CSD_CSHL.c **** *  any enabled raw data filter.
 126:Generated_Source\PSoC5/CapSense_CSD_CSHL.c **** *  CapSense_CSD_rawFilterData2[]    - used to store before previous sample
 127:Generated_Source\PSoC5/CapSense_CSD_CSHL.c **** *  of enabled raw data filter. Only required for median or average filters.
 128:Generated_Source\PSoC5/CapSense_CSD_CSHL.c **** *
 129:Generated_Source\PSoC5/CapSense_CSD_CSHL.c **** * Reentrant:
 130:Generated_Source\PSoC5/CapSense_CSD_CSHL.c **** *  No
 131:Generated_Source\PSoC5/CapSense_CSD_CSHL.c **** *
 132:Generated_Source\PSoC5/CapSense_CSD_CSHL.c **** *******************************************************************************/
 133:Generated_Source\PSoC5/CapSense_CSD_CSHL.c **** void CapSense_CSD_BaseInit(uint8 sensor) 
 134:Generated_Source\PSoC5/CapSense_CSD_CSHL.c **** {
  28              		.loc 1 134 0
  29              		.cfi_startproc
  30              		@ args = 0, pretend = 0, frame = 0
  31              		@ frame_needed = 0, uses_anonymous_args = 0
  32              		@ link register save eliminated.
  33              	.LVL0:
 135:Generated_Source\PSoC5/CapSense_CSD_CSHL.c ****     #if ((CapSense_CSD_TOTAL_BUTTONS_COUNT) || (CapSense_CSD_TOTAL_MATRIX_BUTTONS_COUNT) || \
 136:Generated_Source\PSoC5/CapSense_CSD_CSHL.c ****          (CapSense_CSD_TOTAL_GENERICS_COUNT))
 137:Generated_Source\PSoC5/CapSense_CSD_CSHL.c ****         uint8 widget = CapSense_CSD_widgetNumber[sensor];
 138:Generated_Source\PSoC5/CapSense_CSD_CSHL.c ****     #endif /* ((CapSense_CSD_TOTAL_MATRIX_BUTTONS_COUNT) || (CapSense_CSD_TOTAL_MATRIX_BUTTONS_COUN
ARM GAS  C:\Users\sinow\AppData\Local\Temp\ccPiF27t.s 			page 4


 139:Generated_Source\PSoC5/CapSense_CSD_CSHL.c ****     
 140:Generated_Source\PSoC5/CapSense_CSD_CSHL.c ****     #if (CapSense_CSD_TOTAL_MATRIX_BUTTONS_COUNT)
 141:Generated_Source\PSoC5/CapSense_CSD_CSHL.c ****         uint8 debounceIndex;
 142:Generated_Source\PSoC5/CapSense_CSD_CSHL.c ****     #endif  /* (CapSense_CSD_TOTAL_MATRIX_BUTTONS_COUNT) */
 143:Generated_Source\PSoC5/CapSense_CSD_CSHL.c ****     
 144:Generated_Source\PSoC5/CapSense_CSD_CSHL.c ****     #if (CapSense_CSD_TOTAL_GENERICS_COUNT)
 145:Generated_Source\PSoC5/CapSense_CSD_CSHL.c ****         /* Exclude generic widget */
 146:Generated_Source\PSoC5/CapSense_CSD_CSHL.c ****         if(widget < CapSense_CSD_END_OF_WIDGETS_INDEX)
 147:Generated_Source\PSoC5/CapSense_CSD_CSHL.c ****         {
 148:Generated_Source\PSoC5/CapSense_CSD_CSHL.c ****     #endif  /* CapSense_CSD_TOTAL_GENERICS_COUNT */
 149:Generated_Source\PSoC5/CapSense_CSD_CSHL.c ****     
 150:Generated_Source\PSoC5/CapSense_CSD_CSHL.c ****     /* Initialize Baseline */
 151:Generated_Source\PSoC5/CapSense_CSD_CSHL.c ****     CapSense_CSD_sensorBaseline[sensor] = CapSense_CSD_sensorRaw[sensor];
  34              		.loc 1 151 0
  35 0000 064B     		ldr	r3, .L2
  36 0002 33F81020 		ldrh	r2, [r3, r0, lsl #1]
  37 0006 064B     		ldr	r3, .L2+4
  38 0008 23F81020 		strh	r2, [r3, r0, lsl #1]	@ movhi
 152:Generated_Source\PSoC5/CapSense_CSD_CSHL.c ****     CapSense_CSD_sensorBaselineLow[sensor] = 0u;
  39              		.loc 1 152 0
  40 000c 0023     		movs	r3, #0
  41 000e 054A     		ldr	r2, .L2+8
  42 0010 1354     		strb	r3, [r2, r0]
 153:Generated_Source\PSoC5/CapSense_CSD_CSHL.c ****     CapSense_CSD_sensorSignal[sensor] = 0u;
  43              		.loc 1 153 0
  44 0012 054A     		ldr	r2, .L2+12
  45 0014 22F81030 		strh	r3, [r2, r0, lsl #1]	@ movhi
  46 0018 7047     		bx	lr
  47              	.L3:
  48 001a 00BF     		.align	2
  49              	.L2:
  50 001c 00000000 		.word	CapSense_CSD_sensorRaw
  51 0020 00000000 		.word	CapSense_CSD_sensorBaseline
  52 0024 00000000 		.word	CapSense_CSD_sensorBaselineLow
  53 0028 00000000 		.word	CapSense_CSD_sensorSignal
  54              		.cfi_endproc
  55              	.LFE0:
  56              		.size	CapSense_CSD_BaseInit, .-CapSense_CSD_BaseInit
  57              		.section	.text.CapSense_CSD_InitializeSensorBaseline,"ax",%progbits
  58              		.align	2
  59              		.global	CapSense_CSD_InitializeSensorBaseline
  60              		.thumb
  61              		.thumb_func
  62              		.type	CapSense_CSD_InitializeSensorBaseline, %function
  63              	CapSense_CSD_InitializeSensorBaseline:
  64              	.LFB1:
 154:Generated_Source\PSoC5/CapSense_CSD_CSHL.c ****         
 155:Generated_Source\PSoC5/CapSense_CSD_CSHL.c **** 
 156:Generated_Source\PSoC5/CapSense_CSD_CSHL.c ****     
 157:Generated_Source\PSoC5/CapSense_CSD_CSHL.c ****     #if ((CapSense_CSD_RAW_FILTER_MASK & CapSense_CSD_MEDIAN_FILTER) |\
 158:Generated_Source\PSoC5/CapSense_CSD_CSHL.c ****          (CapSense_CSD_RAW_FILTER_MASK & CapSense_CSD_AVERAGING_FILTER))
 159:Generated_Source\PSoC5/CapSense_CSD_CSHL.c **** 
 160:Generated_Source\PSoC5/CapSense_CSD_CSHL.c ****         CapSense_CSD_rawFilterData1[sensor] = CapSense_CSD_sensorRaw[sensor];
 161:Generated_Source\PSoC5/CapSense_CSD_CSHL.c ****         CapSense_CSD_rawFilterData2[sensor] = CapSense_CSD_sensorRaw[sensor];
 162:Generated_Source\PSoC5/CapSense_CSD_CSHL.c ****     
 163:Generated_Source\PSoC5/CapSense_CSD_CSHL.c ****     #elif ((CapSense_CSD_RAW_FILTER_MASK & CapSense_CSD_IIR2_FILTER) |\
 164:Generated_Source\PSoC5/CapSense_CSD_CSHL.c ****            (CapSense_CSD_RAW_FILTER_MASK & CapSense_CSD_IIR4_FILTER) |\
ARM GAS  C:\Users\sinow\AppData\Local\Temp\ccPiF27t.s 			page 5


 165:Generated_Source\PSoC5/CapSense_CSD_CSHL.c ****            (CapSense_CSD_RAW_FILTER_MASK & CapSense_CSD_JITTER_FILTER) |\
 166:Generated_Source\PSoC5/CapSense_CSD_CSHL.c ****            (CapSense_CSD_RAW_FILTER_MASK & CapSense_CSD_IIR8_FILTER) |\
 167:Generated_Source\PSoC5/CapSense_CSD_CSHL.c ****            (CapSense_CSD_RAW_FILTER_MASK & CapSense_CSD_IIR16_FILTER))
 168:Generated_Source\PSoC5/CapSense_CSD_CSHL.c ****             
 169:Generated_Source\PSoC5/CapSense_CSD_CSHL.c ****         CapSense_CSD_rawFilterData1[sensor] = CapSense_CSD_sensorRaw[sensor];
 170:Generated_Source\PSoC5/CapSense_CSD_CSHL.c ****     
 171:Generated_Source\PSoC5/CapSense_CSD_CSHL.c ****     #else
 172:Generated_Source\PSoC5/CapSense_CSD_CSHL.c ****         /* No Raw filters */
 173:Generated_Source\PSoC5/CapSense_CSD_CSHL.c ****     #endif  /* ((CapSense_CSD_RAW_FILTER_MASK & CapSense_CSD_MEDIAN_FILTER) | \
 174:Generated_Source\PSoC5/CapSense_CSD_CSHL.c ****             *   (CapSense_CSD_RAW_FILTER_MASK & CapSense_CSD_AVERAGING_FILTER))
 175:Generated_Source\PSoC5/CapSense_CSD_CSHL.c ****             */
 176:Generated_Source\PSoC5/CapSense_CSD_CSHL.c ****     
 177:Generated_Source\PSoC5/CapSense_CSD_CSHL.c ****     #if (CapSense_CSD_TOTAL_GENERICS_COUNT)
 178:Generated_Source\PSoC5/CapSense_CSD_CSHL.c ****         /* Exclude generic widget */
 179:Generated_Source\PSoC5/CapSense_CSD_CSHL.c ****         }
 180:Generated_Source\PSoC5/CapSense_CSD_CSHL.c ****     #endif  /* CapSense_CSD_TOTAL_GENERICS_COUNT */
 181:Generated_Source\PSoC5/CapSense_CSD_CSHL.c **** }
 182:Generated_Source\PSoC5/CapSense_CSD_CSHL.c **** 
 183:Generated_Source\PSoC5/CapSense_CSD_CSHL.c **** 
 184:Generated_Source\PSoC5/CapSense_CSD_CSHL.c **** /*******************************************************************************
 185:Generated_Source\PSoC5/CapSense_CSD_CSHL.c **** * Function Name: CapSense_CSD_InitializeSensorBaseline
 186:Generated_Source\PSoC5/CapSense_CSD_CSHL.c **** ********************************************************************************
 187:Generated_Source\PSoC5/CapSense_CSD_CSHL.c **** *
 188:Generated_Source\PSoC5/CapSense_CSD_CSHL.c **** * Summary:
 189:Generated_Source\PSoC5/CapSense_CSD_CSHL.c **** *  Loads the CapSense_CSD_sensorBaseline[sensor] array element with an 
 190:Generated_Source\PSoC5/CapSense_CSD_CSHL.c **** *  initial value by scanning the selected sensor (one channel design) or pair 
 191:Generated_Source\PSoC5/CapSense_CSD_CSHL.c **** *  of sensors (two channels designs). The raw count value is copied into the 
 192:Generated_Source\PSoC5/CapSense_CSD_CSHL.c **** *  baseline array for each sensor. The raw data filters are initialized if 
 193:Generated_Source\PSoC5/CapSense_CSD_CSHL.c **** *  enabled.
 194:Generated_Source\PSoC5/CapSense_CSD_CSHL.c **** *
 195:Generated_Source\PSoC5/CapSense_CSD_CSHL.c **** * Parameters:
 196:Generated_Source\PSoC5/CapSense_CSD_CSHL.c **** *  sensor:  Sensor number.
 197:Generated_Source\PSoC5/CapSense_CSD_CSHL.c **** *
 198:Generated_Source\PSoC5/CapSense_CSD_CSHL.c **** * Return:
 199:Generated_Source\PSoC5/CapSense_CSD_CSHL.c **** *  None
 200:Generated_Source\PSoC5/CapSense_CSD_CSHL.c **** *
 201:Generated_Source\PSoC5/CapSense_CSD_CSHL.c **** * Reentrant:
 202:Generated_Source\PSoC5/CapSense_CSD_CSHL.c **** *  No
 203:Generated_Source\PSoC5/CapSense_CSD_CSHL.c **** *
 204:Generated_Source\PSoC5/CapSense_CSD_CSHL.c **** *******************************************************************************/
 205:Generated_Source\PSoC5/CapSense_CSD_CSHL.c **** void CapSense_CSD_InitializeSensorBaseline(uint8 sensor)
 206:Generated_Source\PSoC5/CapSense_CSD_CSHL.c ****                           
 207:Generated_Source\PSoC5/CapSense_CSD_CSHL.c **** {
  65              		.loc 1 207 0
  66              		.cfi_startproc
  67              		@ args = 0, pretend = 0, frame = 0
  68              		@ frame_needed = 0, uses_anonymous_args = 0
  69              	.LVL1:
  70 0000 10B5     		push	{r4, lr}
  71              		.cfi_def_cfa_offset 8
  72              		.cfi_offset 4, -8
  73              		.cfi_offset 14, -4
  74 0002 0446     		mov	r4, r0
 208:Generated_Source\PSoC5/CapSense_CSD_CSHL.c ****     /* Scan sensor */
 209:Generated_Source\PSoC5/CapSense_CSD_CSHL.c ****     CapSense_CSD_ScanSensor(sensor);
  75              		.loc 1 209 0
  76 0004 FFF7FEFF 		bl	CapSense_CSD_ScanSensor
ARM GAS  C:\Users\sinow\AppData\Local\Temp\ccPiF27t.s 			page 6


  77              	.LVL2:
  78              	.L5:
 210:Generated_Source\PSoC5/CapSense_CSD_CSHL.c ****     while(CapSense_CSD_IsBusy() != 0u)
  79              		.loc 1 210 0 discriminator 1
  80 0008 FFF7FEFF 		bl	CapSense_CSD_IsBusy
  81              	.LVL3:
  82 000c 0028     		cmp	r0, #0
  83 000e FBD1     		bne	.L5
 211:Generated_Source\PSoC5/CapSense_CSD_CSHL.c ****     {
 212:Generated_Source\PSoC5/CapSense_CSD_CSHL.c ****         /* Wait while busy */
 213:Generated_Source\PSoC5/CapSense_CSD_CSHL.c ****     }
 214:Generated_Source\PSoC5/CapSense_CSD_CSHL.c ****     
 215:Generated_Source\PSoC5/CapSense_CSD_CSHL.c ****     #if (CapSense_CSD_DESIGN_TYPE == CapSense_CSD_ONE_CHANNEL_DESIGN)
 216:Generated_Source\PSoC5/CapSense_CSD_CSHL.c ****         /* Initialize Baseline, Signal and debounce counters */       
 217:Generated_Source\PSoC5/CapSense_CSD_CSHL.c ****         CapSense_CSD_BaseInit(sensor);
  84              		.loc 1 217 0
  85 0010 2046     		mov	r0, r4
  86 0012 FFF7FEFF 		bl	CapSense_CSD_BaseInit
  87              	.LVL4:
  88 0016 10BD     		pop	{r4, pc}
  89              		.cfi_endproc
  90              	.LFE1:
  91              		.size	CapSense_CSD_InitializeSensorBaseline, .-CapSense_CSD_InitializeSensorBaseline
  92              		.section	.text.CapSense_CSD_InitializeAllBaselines,"ax",%progbits
  93              		.align	2
  94              		.global	CapSense_CSD_InitializeAllBaselines
  95              		.thumb
  96              		.thumb_func
  97              		.type	CapSense_CSD_InitializeAllBaselines, %function
  98              	CapSense_CSD_InitializeAllBaselines:
  99              	.LFB2:
 218:Generated_Source\PSoC5/CapSense_CSD_CSHL.c ****         
 219:Generated_Source\PSoC5/CapSense_CSD_CSHL.c ****     #else
 220:Generated_Source\PSoC5/CapSense_CSD_CSHL.c ****     
 221:Generated_Source\PSoC5/CapSense_CSD_CSHL.c ****         if(sensor < CapSense_CSD_TOTAL_SENSOR_COUNT__CH0)
 222:Generated_Source\PSoC5/CapSense_CSD_CSHL.c ****         {
 223:Generated_Source\PSoC5/CapSense_CSD_CSHL.c ****             /* Initialize Baseline, Signal and debounce counters */ 
 224:Generated_Source\PSoC5/CapSense_CSD_CSHL.c ****             CapSense_CSD_BaseInit(sensor);
 225:Generated_Source\PSoC5/CapSense_CSD_CSHL.c ****         }
 226:Generated_Source\PSoC5/CapSense_CSD_CSHL.c ****         
 227:Generated_Source\PSoC5/CapSense_CSD_CSHL.c ****         if(sensor < CapSense_CSD_TOTAL_SENSOR_COUNT__CH1)
 228:Generated_Source\PSoC5/CapSense_CSD_CSHL.c ****         {
 229:Generated_Source\PSoC5/CapSense_CSD_CSHL.c ****             /* Initialize Baseline, Signal and debounce counters */
 230:Generated_Source\PSoC5/CapSense_CSD_CSHL.c ****             CapSense_CSD_BaseInit(sensor + CapSense_CSD_TOTAL_SENSOR_COUNT__CH0);
 231:Generated_Source\PSoC5/CapSense_CSD_CSHL.c ****         }
 232:Generated_Source\PSoC5/CapSense_CSD_CSHL.c ****     
 233:Generated_Source\PSoC5/CapSense_CSD_CSHL.c ****     #endif  /* (CapSense_CSD_DESIGN_TYPE == CapSense_CSD_ONE_CHANNEL_DESIGN) */
 234:Generated_Source\PSoC5/CapSense_CSD_CSHL.c **** }
 235:Generated_Source\PSoC5/CapSense_CSD_CSHL.c **** 
 236:Generated_Source\PSoC5/CapSense_CSD_CSHL.c **** 
 237:Generated_Source\PSoC5/CapSense_CSD_CSHL.c **** /*******************************************************************************
 238:Generated_Source\PSoC5/CapSense_CSD_CSHL.c **** * Function Name: CapSense_CSD_InitializeAllBaselines
 239:Generated_Source\PSoC5/CapSense_CSD_CSHL.c **** ********************************************************************************
 240:Generated_Source\PSoC5/CapSense_CSD_CSHL.c **** *
 241:Generated_Source\PSoC5/CapSense_CSD_CSHL.c **** * Summary:
 242:Generated_Source\PSoC5/CapSense_CSD_CSHL.c **** *  Uses the CapSense_CSD_InitializeSensorBaseline function to loads the 
 243:Generated_Source\PSoC5/CapSense_CSD_CSHL.c **** *  CapSense_CSD_sensorBaseline[] array with an initial values by scanning 
ARM GAS  C:\Users\sinow\AppData\Local\Temp\ccPiF27t.s 			page 7


 244:Generated_Source\PSoC5/CapSense_CSD_CSHL.c **** *  all sensors. The raw count values are copied into the baseline array for 
 245:Generated_Source\PSoC5/CapSense_CSD_CSHL.c **** *  all sensors. The raw data filters are initialized if enabled.
 246:Generated_Source\PSoC5/CapSense_CSD_CSHL.c **** *
 247:Generated_Source\PSoC5/CapSense_CSD_CSHL.c **** * Parameters:
 248:Generated_Source\PSoC5/CapSense_CSD_CSHL.c **** *  None
 249:Generated_Source\PSoC5/CapSense_CSD_CSHL.c **** *
 250:Generated_Source\PSoC5/CapSense_CSD_CSHL.c **** * Return:
 251:Generated_Source\PSoC5/CapSense_CSD_CSHL.c **** *  None
 252:Generated_Source\PSoC5/CapSense_CSD_CSHL.c **** *
 253:Generated_Source\PSoC5/CapSense_CSD_CSHL.c **** * Reentrant:
 254:Generated_Source\PSoC5/CapSense_CSD_CSHL.c **** *  No
 255:Generated_Source\PSoC5/CapSense_CSD_CSHL.c **** *
 256:Generated_Source\PSoC5/CapSense_CSD_CSHL.c **** *******************************************************************************/
 257:Generated_Source\PSoC5/CapSense_CSD_CSHL.c **** void CapSense_CSD_InitializeAllBaselines(void)
 258:Generated_Source\PSoC5/CapSense_CSD_CSHL.c ****                           
 259:Generated_Source\PSoC5/CapSense_CSD_CSHL.c **** {
 100              		.loc 1 259 0
 101              		.cfi_startproc
 102              		@ args = 0, pretend = 0, frame = 0
 103              		@ frame_needed = 0, uses_anonymous_args = 0
 104 0000 10B5     		push	{r4, lr}
 105              		.cfi_def_cfa_offset 8
 106              		.cfi_offset 4, -8
 107              		.cfi_offset 14, -4
 108              	.LVL5:
 260:Generated_Source\PSoC5/CapSense_CSD_CSHL.c ****     uint8 i;
 261:Generated_Source\PSoC5/CapSense_CSD_CSHL.c ****     
 262:Generated_Source\PSoC5/CapSense_CSD_CSHL.c ****     /* The baseline initialize by sensor of sensor pair */
 263:Generated_Source\PSoC5/CapSense_CSD_CSHL.c ****     for(i = 0u; i < CapSense_CSD_TOTAL_SCANSLOT_COUNT; i++)
 109              		.loc 1 263 0
 110 0002 0024     		movs	r4, #0
 111 0004 04E0     		b	.L8
 112              	.LVL6:
 113              	.L9:
 264:Generated_Source\PSoC5/CapSense_CSD_CSHL.c ****     {
 265:Generated_Source\PSoC5/CapSense_CSD_CSHL.c ****         CapSense_CSD_InitializeSensorBaseline(i);
 114              		.loc 1 265 0 discriminator 3
 115 0006 2046     		mov	r0, r4
 116 0008 FFF7FEFF 		bl	CapSense_CSD_InitializeSensorBaseline
 117              	.LVL7:
 263:Generated_Source\PSoC5/CapSense_CSD_CSHL.c ****     {
 118              		.loc 1 263 0 discriminator 3
 119 000c 0134     		adds	r4, r4, #1
 120              	.LVL8:
 121 000e E4B2     		uxtb	r4, r4
 122              	.LVL9:
 123              	.L8:
 263:Generated_Source\PSoC5/CapSense_CSD_CSHL.c ****     {
 124              		.loc 1 263 0 is_stmt 0 discriminator 1
 125 0010 042C     		cmp	r4, #4
 126 0012 F8D9     		bls	.L9
 266:Generated_Source\PSoC5/CapSense_CSD_CSHL.c ****     }
 267:Generated_Source\PSoC5/CapSense_CSD_CSHL.c **** }
 127              		.loc 1 267 0 is_stmt 1
 128 0014 10BD     		pop	{r4, pc}
 129              		.cfi_endproc
 130              	.LFE2:
ARM GAS  C:\Users\sinow\AppData\Local\Temp\ccPiF27t.s 			page 8


 131              		.size	CapSense_CSD_InitializeAllBaselines, .-CapSense_CSD_InitializeAllBaselines
 132 0016 00BF     		.section	.text.CapSense_CSD_InitializeEnabledBaselines,"ax",%progbits
 133              		.align	2
 134              		.global	CapSense_CSD_InitializeEnabledBaselines
 135              		.thumb
 136              		.thumb_func
 137              		.type	CapSense_CSD_InitializeEnabledBaselines, %function
 138              	CapSense_CSD_InitializeEnabledBaselines:
 139              	.LFB3:
 268:Generated_Source\PSoC5/CapSense_CSD_CSHL.c **** 
 269:Generated_Source\PSoC5/CapSense_CSD_CSHL.c **** 
 270:Generated_Source\PSoC5/CapSense_CSD_CSHL.c **** /*******************************************************************************
 271:Generated_Source\PSoC5/CapSense_CSD_CSHL.c **** * Function Name: CapSense_CSD_InitializeEnabledBaselines
 272:Generated_Source\PSoC5/CapSense_CSD_CSHL.c **** ********************************************************************************
 273:Generated_Source\PSoC5/CapSense_CSD_CSHL.c **** *
 274:Generated_Source\PSoC5/CapSense_CSD_CSHL.c **** * Summary:
 275:Generated_Source\PSoC5/CapSense_CSD_CSHL.c **** *  Scans all enabled widgets and the raw count values are copied into the 
 276:Generated_Source\PSoC5/CapSense_CSD_CSHL.c **** *  baseline array for all sensors enabled in scanning process. Baselines 
 277:Generated_Source\PSoC5/CapSense_CSD_CSHL.c **** *  initialize with zero values for sensors disabled from scanning process. 
 278:Generated_Source\PSoC5/CapSense_CSD_CSHL.c **** *  The raw data filters are initialized if enabled.
 279:Generated_Source\PSoC5/CapSense_CSD_CSHL.c **** *
 280:Generated_Source\PSoC5/CapSense_CSD_CSHL.c **** * Parameters:
 281:Generated_Source\PSoC5/CapSense_CSD_CSHL.c **** *  None
 282:Generated_Source\PSoC5/CapSense_CSD_CSHL.c **** *
 283:Generated_Source\PSoC5/CapSense_CSD_CSHL.c **** * Return:
 284:Generated_Source\PSoC5/CapSense_CSD_CSHL.c **** *  None
 285:Generated_Source\PSoC5/CapSense_CSD_CSHL.c **** *
 286:Generated_Source\PSoC5/CapSense_CSD_CSHL.c **** * Reentrant:
 287:Generated_Source\PSoC5/CapSense_CSD_CSHL.c **** *  No
 288:Generated_Source\PSoC5/CapSense_CSD_CSHL.c **** *
 289:Generated_Source\PSoC5/CapSense_CSD_CSHL.c **** *******************************************************************************/
 290:Generated_Source\PSoC5/CapSense_CSD_CSHL.c **** void CapSense_CSD_InitializeEnabledBaselines(void)
 291:Generated_Source\PSoC5/CapSense_CSD_CSHL.c ****                              
 292:Generated_Source\PSoC5/CapSense_CSD_CSHL.c **** {
 140              		.loc 1 292 0
 141              		.cfi_startproc
 142              		@ args = 0, pretend = 0, frame = 0
 143              		@ frame_needed = 0, uses_anonymous_args = 0
 144 0000 10B5     		push	{r4, lr}
 145              		.cfi_def_cfa_offset 8
 146              		.cfi_offset 4, -8
 147              		.cfi_offset 14, -4
 293:Generated_Source\PSoC5/CapSense_CSD_CSHL.c ****     uint8 i;
 294:Generated_Source\PSoC5/CapSense_CSD_CSHL.c ****     uint8 pos;
 295:Generated_Source\PSoC5/CapSense_CSD_CSHL.c ****     uint8 enMask;
 296:Generated_Source\PSoC5/CapSense_CSD_CSHL.c ****     
 297:Generated_Source\PSoC5/CapSense_CSD_CSHL.c ****     CapSense_CSD_ScanEnabledWidgets();
 148              		.loc 1 297 0
 149 0002 FFF7FEFF 		bl	CapSense_CSD_ScanEnabledWidgets
 150              	.LVL10:
 151              	.L12:
 298:Generated_Source\PSoC5/CapSense_CSD_CSHL.c ****     while(CapSense_CSD_IsBusy() != 0u)
 152              		.loc 1 298 0 discriminator 1
 153 0006 FFF7FEFF 		bl	CapSense_CSD_IsBusy
 154              	.LVL11:
 155 000a 0028     		cmp	r0, #0
 156 000c FBD1     		bne	.L12
ARM GAS  C:\Users\sinow\AppData\Local\Temp\ccPiF27t.s 			page 9


 157 000e 0024     		movs	r4, #0
 158 0010 11E0     		b	.L13
 159              	.LVL12:
 160              	.L15:
 299:Generated_Source\PSoC5/CapSense_CSD_CSHL.c ****     {
 300:Generated_Source\PSoC5/CapSense_CSD_CSHL.c ****         /* Wait while busy */
 301:Generated_Source\PSoC5/CapSense_CSD_CSHL.c ****     }
 302:Generated_Source\PSoC5/CapSense_CSD_CSHL.c ****     
 303:Generated_Source\PSoC5/CapSense_CSD_CSHL.c ****     for(i = 0u; i < CapSense_CSD_TOTAL_SENSOR_COUNT; i++)
 304:Generated_Source\PSoC5/CapSense_CSD_CSHL.c ****     {
 305:Generated_Source\PSoC5/CapSense_CSD_CSHL.c ****         pos = (i >> 3u);
 161              		.loc 1 305 0
 162 0012 E208     		lsrs	r2, r4, #3
 306:Generated_Source\PSoC5/CapSense_CSD_CSHL.c ****         enMask = 0x01u << (i & 0x07u);
 163              		.loc 1 306 0
 164 0014 04F00701 		and	r1, r4, #7
 165 0018 0123     		movs	r3, #1
 166 001a 8B40     		lsls	r3, r3, r1
 167              	.LVL13:
 307:Generated_Source\PSoC5/CapSense_CSD_CSHL.c ****         
 308:Generated_Source\PSoC5/CapSense_CSD_CSHL.c ****         /* Clear raw data if sensor is disabled from scanning process */
 309:Generated_Source\PSoC5/CapSense_CSD_CSHL.c ****         if((CapSense_CSD_sensorEnableMask[pos] & enMask) == 0u)
 168              		.loc 1 309 0
 169 001c 0749     		ldr	r1, .L17
 170 001e 8A5C     		ldrb	r2, [r1, r2]	@ zero_extendqisi2
 171 0020 1342     		tst	r3, r2
 172 0022 03D1     		bne	.L14
 310:Generated_Source\PSoC5/CapSense_CSD_CSHL.c ****         {
 311:Generated_Source\PSoC5/CapSense_CSD_CSHL.c ****             CapSense_CSD_sensorRaw[i] = 0u;
 173              		.loc 1 311 0
 174 0024 0022     		movs	r2, #0
 175 0026 064B     		ldr	r3, .L17+4
 176              	.LVL14:
 177 0028 23F81420 		strh	r2, [r3, r4, lsl #1]	@ movhi
 178              	.L14:
 312:Generated_Source\PSoC5/CapSense_CSD_CSHL.c ****         }
 313:Generated_Source\PSoC5/CapSense_CSD_CSHL.c ****         
 314:Generated_Source\PSoC5/CapSense_CSD_CSHL.c ****         /* Initialize baselines */
 315:Generated_Source\PSoC5/CapSense_CSD_CSHL.c ****         CapSense_CSD_BaseInit(i);
 179              		.loc 1 315 0 discriminator 2
 180 002c 2046     		mov	r0, r4
 181 002e FFF7FEFF 		bl	CapSense_CSD_BaseInit
 182              	.LVL15:
 303:Generated_Source\PSoC5/CapSense_CSD_CSHL.c ****     {
 183              		.loc 1 303 0 discriminator 2
 184 0032 0134     		adds	r4, r4, #1
 185              	.LVL16:
 186 0034 E4B2     		uxtb	r4, r4
 187              	.LVL17:
 188              	.L13:
 303:Generated_Source\PSoC5/CapSense_CSD_CSHL.c ****     {
 189              		.loc 1 303 0 is_stmt 0 discriminator 1
 190 0036 042C     		cmp	r4, #4
 191 0038 EBD9     		bls	.L15
 316:Generated_Source\PSoC5/CapSense_CSD_CSHL.c ****     }
 317:Generated_Source\PSoC5/CapSense_CSD_CSHL.c **** }  
 192              		.loc 1 317 0 is_stmt 1
ARM GAS  C:\Users\sinow\AppData\Local\Temp\ccPiF27t.s 			page 10


 193 003a 10BD     		pop	{r4, pc}
 194              	.LVL18:
 195              	.L18:
 196              		.align	2
 197              	.L17:
 198 003c 00000000 		.word	CapSense_CSD_sensorEnableMask
 199 0040 00000000 		.word	CapSense_CSD_sensorRaw
 200              		.cfi_endproc
 201              	.LFE3:
 202              		.size	CapSense_CSD_InitializeEnabledBaselines, .-CapSense_CSD_InitializeEnabledBaselines
 203              		.section	.text.CapSense_CSD_UpdateSensorBaseline,"ax",%progbits
 204              		.align	2
 205              		.global	CapSense_CSD_UpdateSensorBaseline
 206              		.thumb
 207              		.thumb_func
 208              		.type	CapSense_CSD_UpdateSensorBaseline, %function
 209              	CapSense_CSD_UpdateSensorBaseline:
 210              	.LFB4:
 318:Generated_Source\PSoC5/CapSense_CSD_CSHL.c **** 
 319:Generated_Source\PSoC5/CapSense_CSD_CSHL.c **** 
 320:Generated_Source\PSoC5/CapSense_CSD_CSHL.c **** /*******************************************************************************
 321:Generated_Source\PSoC5/CapSense_CSD_CSHL.c **** * Function Name: CapSense_CSD_UpdateSensorBaseline
 322:Generated_Source\PSoC5/CapSense_CSD_CSHL.c **** ********************************************************************************
 323:Generated_Source\PSoC5/CapSense_CSD_CSHL.c **** *
 324:Generated_Source\PSoC5/CapSense_CSD_CSHL.c **** * Summary:
 325:Generated_Source\PSoC5/CapSense_CSD_CSHL.c **** *  Updates the CapSense_CSD_sensorBaseline[sensor] array element using the 
 326:Generated_Source\PSoC5/CapSense_CSD_CSHL.c **** *  LP filter with k = 256. The signal calculates the difference of count by 
 327:Generated_Source\PSoC5/CapSense_CSD_CSHL.c **** *  subtracting the previous baseline from the current raw count value and stores
 328:Generated_Source\PSoC5/CapSense_CSD_CSHL.c **** *  it in CapSense_CSD_SensorSignal[sensor]. 
 329:Generated_Source\PSoC5/CapSense_CSD_CSHL.c **** *  If auto reset option is enabled the baseline updated regards noise threshold. 
 330:Generated_Source\PSoC5/CapSense_CSD_CSHL.c **** *  If auto reset option is disabled the baseline stops updating if signal is 
 331:Generated_Source\PSoC5/CapSense_CSD_CSHL.c **** *  greater that zero and baseline loads with raw count value if signal is less 
 332:Generated_Source\PSoC5/CapSense_CSD_CSHL.c **** *  that noise threshold.
 333:Generated_Source\PSoC5/CapSense_CSD_CSHL.c **** *  Raw data filters are applied to the values if enabled before baseline 
 334:Generated_Source\PSoC5/CapSense_CSD_CSHL.c **** *  calculation.
 335:Generated_Source\PSoC5/CapSense_CSD_CSHL.c **** *
 336:Generated_Source\PSoC5/CapSense_CSD_CSHL.c **** * Parameters:
 337:Generated_Source\PSoC5/CapSense_CSD_CSHL.c **** *  sensor:  Sensor number.
 338:Generated_Source\PSoC5/CapSense_CSD_CSHL.c **** *
 339:Generated_Source\PSoC5/CapSense_CSD_CSHL.c **** * Return:
 340:Generated_Source\PSoC5/CapSense_CSD_CSHL.c **** *  None
 341:Generated_Source\PSoC5/CapSense_CSD_CSHL.c **** *
 342:Generated_Source\PSoC5/CapSense_CSD_CSHL.c **** * Global Variables:
 343:Generated_Source\PSoC5/CapSense_CSD_CSHL.c **** *  CapSense_CSD_sensorBaseline[]    - used to store baseline value.
 344:Generated_Source\PSoC5/CapSense_CSD_CSHL.c **** *  CapSense_CSD_sensorBaselineLow[] - used to store fraction byte of 
 345:Generated_Source\PSoC5/CapSense_CSD_CSHL.c **** *  baseline value.
 346:Generated_Source\PSoC5/CapSense_CSD_CSHL.c **** *  CapSense_CSD_sensorSignal[]      - used to store diffence between 
 347:Generated_Source\PSoC5/CapSense_CSD_CSHL.c **** *  current value of raw data and previous value of baseline.
 348:Generated_Source\PSoC5/CapSense_CSD_CSHL.c **** *  CapSense_CSD_rawFilterData1[]    - used to store previous sample of 
 349:Generated_Source\PSoC5/CapSense_CSD_CSHL.c **** *  any enabled raw data filter.
 350:Generated_Source\PSoC5/CapSense_CSD_CSHL.c **** *  CapSense_CSD_rawFilterData2[]    - used to store before previous sample
 351:Generated_Source\PSoC5/CapSense_CSD_CSHL.c **** *  of enabled raw data filter. Only required for median or average filters.
 352:Generated_Source\PSoC5/CapSense_CSD_CSHL.c **** *
 353:Generated_Source\PSoC5/CapSense_CSD_CSHL.c **** * Reentrant:
 354:Generated_Source\PSoC5/CapSense_CSD_CSHL.c **** *  No
 355:Generated_Source\PSoC5/CapSense_CSD_CSHL.c **** *
 356:Generated_Source\PSoC5/CapSense_CSD_CSHL.c **** *******************************************************************************/
ARM GAS  C:\Users\sinow\AppData\Local\Temp\ccPiF27t.s 			page 11


 357:Generated_Source\PSoC5/CapSense_CSD_CSHL.c ****  void CapSense_CSD_UpdateSensorBaseline(uint8 sensor)
 358:Generated_Source\PSoC5/CapSense_CSD_CSHL.c ****                                  
 359:Generated_Source\PSoC5/CapSense_CSD_CSHL.c **** {
 211              		.loc 1 359 0
 212              		.cfi_startproc
 213              		@ args = 0, pretend = 0, frame = 0
 214              		@ frame_needed = 0, uses_anonymous_args = 0
 215              	.LVL19:
 216 0000 70B5     		push	{r4, r5, r6, lr}
 217              		.cfi_def_cfa_offset 16
 218              		.cfi_offset 4, -16
 219              		.cfi_offset 5, -12
 220              		.cfi_offset 6, -8
 221              		.cfi_offset 14, -4
 222 0002 0446     		mov	r4, r0
 223              	.LVL20:
 360:Generated_Source\PSoC5/CapSense_CSD_CSHL.c ****     uint32 calc;
 361:Generated_Source\PSoC5/CapSense_CSD_CSHL.c ****     uint16 tempRaw;
 362:Generated_Source\PSoC5/CapSense_CSD_CSHL.c ****     uint16 filteredRawData;
 363:Generated_Source\PSoC5/CapSense_CSD_CSHL.c ****     uint8 widget = CapSense_CSD_widgetNumber[sensor];
 364:Generated_Source\PSoC5/CapSense_CSD_CSHL.c ****     uint16 noiseThreshold = CapSense_CSD_noiseThreshold[widget];
 365:Generated_Source\PSoC5/CapSense_CSD_CSHL.c ****     
 366:Generated_Source\PSoC5/CapSense_CSD_CSHL.c ****     #if (CapSense_CSD_TOTAL_GENERICS_COUNT)
 367:Generated_Source\PSoC5/CapSense_CSD_CSHL.c ****         /* Exclude generic widget */
 368:Generated_Source\PSoC5/CapSense_CSD_CSHL.c ****         if(widget < CapSense_CSD_END_OF_WIDGETS_INDEX)
 369:Generated_Source\PSoC5/CapSense_CSD_CSHL.c ****         {
 370:Generated_Source\PSoC5/CapSense_CSD_CSHL.c ****     #endif  /* CapSense_CSD_TOTAL_GENERICS_COUNT */
 371:Generated_Source\PSoC5/CapSense_CSD_CSHL.c ****     
 372:Generated_Source\PSoC5/CapSense_CSD_CSHL.c ****     filteredRawData = CapSense_CSD_sensorRaw[sensor];
 224              		.loc 1 372 0
 225 0004 204B     		ldr	r3, .L29
 226 0006 33F81030 		ldrh	r3, [r3, r0, lsl #1]
 227              	.LVL21:
 373:Generated_Source\PSoC5/CapSense_CSD_CSHL.c ****     
 374:Generated_Source\PSoC5/CapSense_CSD_CSHL.c ****     #if (CapSense_CSD_RAW_FILTER_MASK & CapSense_CSD_MEDIAN_FILTER)
 375:Generated_Source\PSoC5/CapSense_CSD_CSHL.c ****         tempRaw = filteredRawData;
 376:Generated_Source\PSoC5/CapSense_CSD_CSHL.c ****         filteredRawData = CapSense_CSD_MedianFilter(filteredRawData, CapSense_CSD_rawFilterData1[se
 377:Generated_Source\PSoC5/CapSense_CSD_CSHL.c ****                                                         CapSense_CSD_rawFilterData2[sensor]);
 378:Generated_Source\PSoC5/CapSense_CSD_CSHL.c ****         CapSense_CSD_rawFilterData2[sensor] = CapSense_CSD_rawFilterData1[sensor];
 379:Generated_Source\PSoC5/CapSense_CSD_CSHL.c ****         CapSense_CSD_rawFilterData1[sensor] = tempRaw;
 380:Generated_Source\PSoC5/CapSense_CSD_CSHL.c ****         
 381:Generated_Source\PSoC5/CapSense_CSD_CSHL.c ****     #elif (CapSense_CSD_RAW_FILTER_MASK & CapSense_CSD_AVERAGING_FILTER)
 382:Generated_Source\PSoC5/CapSense_CSD_CSHL.c ****         tempRaw = filteredRawData;
 383:Generated_Source\PSoC5/CapSense_CSD_CSHL.c ****         filteredRawData = CapSense_CSD_AveragingFilter(filteredRawData, CapSense_CSD_rawFilterData1
 384:Generated_Source\PSoC5/CapSense_CSD_CSHL.c ****                                                            CapSense_CSD_rawFilterData2[sensor]);
 385:Generated_Source\PSoC5/CapSense_CSD_CSHL.c ****         CapSense_CSD_rawFilterData2[sensor] = CapSense_CSD_rawFilterData1[sensor];
 386:Generated_Source\PSoC5/CapSense_CSD_CSHL.c ****         CapSense_CSD_rawFilterData1[sensor] = tempRaw;
 387:Generated_Source\PSoC5/CapSense_CSD_CSHL.c ****         
 388:Generated_Source\PSoC5/CapSense_CSD_CSHL.c ****     #elif (CapSense_CSD_RAW_FILTER_MASK & CapSense_CSD_IIR2_FILTER)
 389:Generated_Source\PSoC5/CapSense_CSD_CSHL.c ****         filteredRawData = CapSense_CSD_IIR2Filter(filteredRawData, CapSense_CSD_rawFilterData1[sens
 390:Generated_Source\PSoC5/CapSense_CSD_CSHL.c ****         CapSense_CSD_rawFilterData1[sensor] = filteredRawData;
 391:Generated_Source\PSoC5/CapSense_CSD_CSHL.c ****         
 392:Generated_Source\PSoC5/CapSense_CSD_CSHL.c ****     #elif (CapSense_CSD_RAW_FILTER_MASK & CapSense_CSD_IIR4_FILTER)
 393:Generated_Source\PSoC5/CapSense_CSD_CSHL.c ****         filteredRawData = CapSense_CSD_IIR4Filter(filteredRawData, CapSense_CSD_rawFilterData1[sens
 394:Generated_Source\PSoC5/CapSense_CSD_CSHL.c ****         CapSense_CSD_rawFilterData1[sensor] = filteredRawData;
 395:Generated_Source\PSoC5/CapSense_CSD_CSHL.c ****             
 396:Generated_Source\PSoC5/CapSense_CSD_CSHL.c ****     #elif (CapSense_CSD_RAW_FILTER_MASK & CapSense_CSD_JITTER_FILTER)
ARM GAS  C:\Users\sinow\AppData\Local\Temp\ccPiF27t.s 			page 12


 397:Generated_Source\PSoC5/CapSense_CSD_CSHL.c ****         filteredRawData = CapSense_CSD_JitterFilter(filteredRawData, CapSense_CSD_rawFilterData1[se
 398:Generated_Source\PSoC5/CapSense_CSD_CSHL.c ****         CapSense_CSD_rawFilterData1[sensor] = filteredRawData;
 399:Generated_Source\PSoC5/CapSense_CSD_CSHL.c ****         
 400:Generated_Source\PSoC5/CapSense_CSD_CSHL.c ****     #elif (CapSense_CSD_RAW_FILTER_MASK & CapSense_CSD_IIR8_FILTER)
 401:Generated_Source\PSoC5/CapSense_CSD_CSHL.c ****         filteredRawData = CapSense_CSD_IIR8Filter(filteredRawData, CapSense_CSD_rawFilterData1[sens
 402:Generated_Source\PSoC5/CapSense_CSD_CSHL.c ****         CapSense_CSD_rawFilterData1[sensor] = filteredRawData;
 403:Generated_Source\PSoC5/CapSense_CSD_CSHL.c ****         
 404:Generated_Source\PSoC5/CapSense_CSD_CSHL.c ****     #elif (CapSense_CSD_RAW_FILTER_MASK & CapSense_CSD_IIR16_FILTER)
 405:Generated_Source\PSoC5/CapSense_CSD_CSHL.c ****         filteredRawData = CapSense_CSD_IIR16Filter(filteredRawData, CapSense_CSD_rawFilterData1[sen
 406:Generated_Source\PSoC5/CapSense_CSD_CSHL.c ****         CapSense_CSD_rawFilterData1[sensor] = filteredRawData;
 407:Generated_Source\PSoC5/CapSense_CSD_CSHL.c ****         
 408:Generated_Source\PSoC5/CapSense_CSD_CSHL.c ****     #else
 409:Generated_Source\PSoC5/CapSense_CSD_CSHL.c ****         /* No Raw filters */
 410:Generated_Source\PSoC5/CapSense_CSD_CSHL.c ****     #endif  /* (CapSense_CSD_RAW_FILTER_MASK & CapSense_CSD_MEDIAN_FILTER) */
 411:Generated_Source\PSoC5/CapSense_CSD_CSHL.c ****     
 412:Generated_Source\PSoC5/CapSense_CSD_CSHL.c ****     #if (CapSense_CSD_TUNING_METHOD == CapSense_CSD_AUTO_TUNING)
 413:Generated_Source\PSoC5/CapSense_CSD_CSHL.c ****         CapSense_CSD_CalculateThresholds(sensor);
 414:Generated_Source\PSoC5/CapSense_CSD_CSHL.c ****     #endif /* (CapSense_CSD_TUNING_METHOD == CapSense_CSD_AUTO_TUNING) */
 415:Generated_Source\PSoC5/CapSense_CSD_CSHL.c **** 
 416:Generated_Source\PSoC5/CapSense_CSD_CSHL.c **** 
 417:Generated_Source\PSoC5/CapSense_CSD_CSHL.c ****     /* Baseline calculation */
 418:Generated_Source\PSoC5/CapSense_CSD_CSHL.c ****     /* Calculate difference RawData[cur] - Baseline[prev] */
 419:Generated_Source\PSoC5/CapSense_CSD_CSHL.c ****     if(filteredRawData >= CapSense_CSD_sensorBaseline[sensor])
 228              		.loc 1 419 0
 229 000a 204A     		ldr	r2, .L29+4
 230 000c 32F81010 		ldrh	r1, [r2, r0, lsl #1]
 231 0010 8B42     		cmp	r3, r1
 232 0012 03D3     		bcc	.L20
 420:Generated_Source\PSoC5/CapSense_CSD_CSHL.c ****     {
 421:Generated_Source\PSoC5/CapSense_CSD_CSHL.c ****         tempRaw = filteredRawData - CapSense_CSD_sensorBaseline[sensor];
 233              		.loc 1 421 0
 234 0014 5D1A     		subs	r5, r3, r1
 235 0016 ADB2     		uxth	r5, r5
 236              	.LVL22:
 422:Generated_Source\PSoC5/CapSense_CSD_CSHL.c ****         widget = 1u;    /* Positive difference - Calculate the Signal */
 237              		.loc 1 422 0
 238 0018 0126     		movs	r6, #1
 239 001a 02E0     		b	.L21
 240              	.LVL23:
 241              	.L20:
 423:Generated_Source\PSoC5/CapSense_CSD_CSHL.c ****     }
 424:Generated_Source\PSoC5/CapSense_CSD_CSHL.c ****     else
 425:Generated_Source\PSoC5/CapSense_CSD_CSHL.c ****     {
 426:Generated_Source\PSoC5/CapSense_CSD_CSHL.c ****         tempRaw = CapSense_CSD_sensorBaseline[sensor] - filteredRawData;
 242              		.loc 1 426 0
 243 001c CD1A     		subs	r5, r1, r3
 244 001e ADB2     		uxth	r5, r5
 245              	.LVL24:
 427:Generated_Source\PSoC5/CapSense_CSD_CSHL.c ****         widget = 0u;    /* Negative difference - Do NOT calculate the Signal */
 246              		.loc 1 427 0
 247 0020 0026     		movs	r6, #0
 248              	.LVL25:
 249              	.L21:
 428:Generated_Source\PSoC5/CapSense_CSD_CSHL.c ****     }
 429:Generated_Source\PSoC5/CapSense_CSD_CSHL.c **** 
 430:Generated_Source\PSoC5/CapSense_CSD_CSHL.c ****     if((widget == 0u) && (tempRaw > (uint16) CapSense_CSD_NEGATIVE_NOISE_THRESHOLD))
 250              		.loc 1 430 0
ARM GAS  C:\Users\sinow\AppData\Local\Temp\ccPiF27t.s 			page 13


 251 0022 86B9     		cbnz	r6, .L22
 252              		.loc 1 430 0 is_stmt 0 discriminator 1
 253 0024 142D     		cmp	r5, #20
 254 0026 0ED9     		bls	.L22
 431:Generated_Source\PSoC5/CapSense_CSD_CSHL.c ****     {
 432:Generated_Source\PSoC5/CapSense_CSD_CSHL.c ****         if(CapSense_CSD_lowBaselineResetCnt[sensor] >= CapSense_CSD_LOW_BASELINE_RESET)
 255              		.loc 1 432 0 is_stmt 1
 256 0028 194B     		ldr	r3, .L29+8
 257              	.LVL26:
 258 002a 1B5D     		ldrb	r3, [r3, r4]	@ zero_extendqisi2
 259 002c 042B     		cmp	r3, #4
 260 002e 06D9     		bls	.L23
 433:Generated_Source\PSoC5/CapSense_CSD_CSHL.c ****         {
 434:Generated_Source\PSoC5/CapSense_CSD_CSHL.c ****             CapSense_CSD_BaseInit(sensor);
 261              		.loc 1 434 0
 262 0030 2046     		mov	r0, r4
 263              	.LVL27:
 264 0032 FFF7FEFF 		bl	CapSense_CSD_BaseInit
 265              	.LVL28:
 435:Generated_Source\PSoC5/CapSense_CSD_CSHL.c ****             CapSense_CSD_lowBaselineResetCnt[sensor] = 0u;
 266              		.loc 1 435 0
 267 0036 0022     		movs	r2, #0
 268 0038 154B     		ldr	r3, .L29+8
 269 003a 1A55     		strb	r2, [r3, r4]
 270 003c 17E0     		b	.L24
 271              	.LVL29:
 272              	.L23:
 436:Generated_Source\PSoC5/CapSense_CSD_CSHL.c ****         }
 437:Generated_Source\PSoC5/CapSense_CSD_CSHL.c ****         else
 438:Generated_Source\PSoC5/CapSense_CSD_CSHL.c ****         {
 439:Generated_Source\PSoC5/CapSense_CSD_CSHL.c ****             CapSense_CSD_lowBaselineResetCnt[sensor]++;
 273              		.loc 1 439 0
 274 003e 0133     		adds	r3, r3, #1
 275 0040 134A     		ldr	r2, .L29+8
 276 0042 1355     		strb	r3, [r2, r4]
 277 0044 13E0     		b	.L24
 278              	.LVL30:
 279              	.L22:
 440:Generated_Source\PSoC5/CapSense_CSD_CSHL.c ****         }
 441:Generated_Source\PSoC5/CapSense_CSD_CSHL.c ****     }
 442:Generated_Source\PSoC5/CapSense_CSD_CSHL.c ****     else
 443:Generated_Source\PSoC5/CapSense_CSD_CSHL.c ****     {
 444:Generated_Source\PSoC5/CapSense_CSD_CSHL.c ****         #if (CapSense_CSD_AUTO_RESET == CapSense_CSD_AUTO_RESET_DISABLE)
 445:Generated_Source\PSoC5/CapSense_CSD_CSHL.c ****             /* Update Baseline if lower that noiseThreshold */
 446:Generated_Source\PSoC5/CapSense_CSD_CSHL.c ****             if ( (tempRaw <= (uint16) noiseThreshold) || 
 280              		.loc 1 446 0
 281 0046 2A2D     		cmp	r5, #42
 282 0048 02D9     		bls	.L25
 283              		.loc 1 446 0 is_stmt 0 discriminator 1
 284 004a 132D     		cmp	r5, #19
 285 004c 0FD8     		bhi	.L24
 447:Generated_Source\PSoC5/CapSense_CSD_CSHL.c ****                  ((tempRaw < (uint16) CapSense_CSD_NEGATIVE_NOISE_THRESHOLD)
 448:Generated_Source\PSoC5/CapSense_CSD_CSHL.c ****                    && (widget == 0u)))
 286              		.loc 1 448 0 is_stmt 1
 287 004e 76B9     		cbnz	r6, .L24
 288              	.L25:
 289              	.LVL31:
ARM GAS  C:\Users\sinow\AppData\Local\Temp\ccPiF27t.s 			page 14


 449:Generated_Source\PSoC5/CapSense_CSD_CSHL.c ****             {
 450:Generated_Source\PSoC5/CapSense_CSD_CSHL.c ****         #endif /* (CapSense_CSD_AUTO_RESET == CapSense_CSD_AUTO_RESET_DISABLE) */
 451:Generated_Source\PSoC5/CapSense_CSD_CSHL.c ****                 /* Make full Baseline 23 bits */
 452:Generated_Source\PSoC5/CapSense_CSD_CSHL.c ****                 calc = (uint32) CapSense_CSD_sensorBaseline[sensor] << 8u;
 453:Generated_Source\PSoC5/CapSense_CSD_CSHL.c ****                 calc |= (uint32) CapSense_CSD_sensorBaselineLow[sensor];
 290              		.loc 1 453 0
 291 0050 1048     		ldr	r0, .L29+12
 292              	.LVL32:
 293 0052 025D     		ldrb	r2, [r0, r4]	@ zero_extendqisi2
 294 0054 42EA0122 		orr	r2, r2, r1, lsl #8
 295              	.LVL33:
 454:Generated_Source\PSoC5/CapSense_CSD_CSHL.c **** 
 455:Generated_Source\PSoC5/CapSense_CSD_CSHL.c ****                 /* Add Raw Data to Baseline */
 456:Generated_Source\PSoC5/CapSense_CSD_CSHL.c ****                 calc += filteredRawData;
 296              		.loc 1 456 0
 297 0058 1344     		add	r3, r3, r2
 298              	.LVL34:
 457:Generated_Source\PSoC5/CapSense_CSD_CSHL.c **** 
 458:Generated_Source\PSoC5/CapSense_CSD_CSHL.c ****                 /* Sub the high Baseline */
 459:Generated_Source\PSoC5/CapSense_CSD_CSHL.c ****                 calc -= CapSense_CSD_sensorBaseline[sensor];
 299              		.loc 1 459 0
 300 005a 5B1A     		subs	r3, r3, r1
 301              	.LVL35:
 460:Generated_Source\PSoC5/CapSense_CSD_CSHL.c **** 
 461:Generated_Source\PSoC5/CapSense_CSD_CSHL.c ****                 /* Put Baseline and BaselineLow */
 462:Generated_Source\PSoC5/CapSense_CSD_CSHL.c ****                 CapSense_CSD_sensorBaseline[sensor] = ((uint16) (calc >> 8u));
 302              		.loc 1 462 0
 303 005c C3F30F21 		ubfx	r1, r3, #8, #16
 304 0060 0A4A     		ldr	r2, .L29+4
 305 0062 22F81410 		strh	r1, [r2, r4, lsl #1]	@ movhi
 463:Generated_Source\PSoC5/CapSense_CSD_CSHL.c ****                 CapSense_CSD_sensorBaselineLow[sensor] = ((uint8) calc);
 306              		.loc 1 463 0
 307 0066 0355     		strb	r3, [r0, r4]
 464:Generated_Source\PSoC5/CapSense_CSD_CSHL.c **** 
 465:Generated_Source\PSoC5/CapSense_CSD_CSHL.c ****                 CapSense_CSD_lowBaselineResetCnt[sensor] = 0u;
 308              		.loc 1 465 0
 309 0068 0022     		movs	r2, #0
 310 006a 094B     		ldr	r3, .L29+8
 311              	.LVL36:
 312 006c 1A55     		strb	r2, [r3, r4]
 313              	.LVL37:
 314              	.L24:
 466:Generated_Source\PSoC5/CapSense_CSD_CSHL.c ****         #if (CapSense_CSD_AUTO_RESET == CapSense_CSD_AUTO_RESET_DISABLE)
 467:Generated_Source\PSoC5/CapSense_CSD_CSHL.c ****             }
 468:Generated_Source\PSoC5/CapSense_CSD_CSHL.c ****         #endif /* (CapSense_CSD_AUTO_RESET == CapSense_CSD_AUTO_RESET_DISABLE) */
 469:Generated_Source\PSoC5/CapSense_CSD_CSHL.c ****     }
 470:Generated_Source\PSoC5/CapSense_CSD_CSHL.c **** 
 471:Generated_Source\PSoC5/CapSense_CSD_CSHL.c ****     /* Calculate Signal if possitive difference > noiseThreshold */
 472:Generated_Source\PSoC5/CapSense_CSD_CSHL.c ****     if((tempRaw > (uint16) noiseThreshold) && (widget != 0u))
 315              		.loc 1 472 0
 316 006e 2A2D     		cmp	r5, #42
 317 0070 04D9     		bls	.L26
 318              		.loc 1 472 0 is_stmt 0 discriminator 1
 319 0072 1EB1     		cbz	r6, .L26
 473:Generated_Source\PSoC5/CapSense_CSD_CSHL.c ****     {
 474:Generated_Source\PSoC5/CapSense_CSD_CSHL.c ****         #if (CapSense_CSD_SIGNAL_SIZE == CapSense_CSD_SIGNAL_SIZE_UINT8)
 475:Generated_Source\PSoC5/CapSense_CSD_CSHL.c ****             /* Over flow defence for uint8 */
ARM GAS  C:\Users\sinow\AppData\Local\Temp\ccPiF27t.s 			page 15


 476:Generated_Source\PSoC5/CapSense_CSD_CSHL.c ****             if (tempRaw > 0xFFu)
 477:Generated_Source\PSoC5/CapSense_CSD_CSHL.c ****             {
 478:Generated_Source\PSoC5/CapSense_CSD_CSHL.c ****                 CapSense_CSD_sensorSignal[sensor] = 0xFFu;
 479:Generated_Source\PSoC5/CapSense_CSD_CSHL.c ****             }    
 480:Generated_Source\PSoC5/CapSense_CSD_CSHL.c ****             else 
 481:Generated_Source\PSoC5/CapSense_CSD_CSHL.c ****             {
 482:Generated_Source\PSoC5/CapSense_CSD_CSHL.c ****                 CapSense_CSD_sensorSignal[sensor] = ((uint8) tempRaw);
 483:Generated_Source\PSoC5/CapSense_CSD_CSHL.c ****             }
 484:Generated_Source\PSoC5/CapSense_CSD_CSHL.c ****         #else
 485:Generated_Source\PSoC5/CapSense_CSD_CSHL.c ****             CapSense_CSD_sensorSignal[sensor] = ((uint16) tempRaw);
 320              		.loc 1 485 0 is_stmt 1
 321 0074 084B     		ldr	r3, .L29+16
 322 0076 23F81450 		strh	r5, [r3, r4, lsl #1]	@ movhi
 323 007a 70BD     		pop	{r4, r5, r6, pc}
 324              	.LVL38:
 325              	.L26:
 486:Generated_Source\PSoC5/CapSense_CSD_CSHL.c ****         #endif  /* (CapSense_CSD_SIGNAL_SIZE == CapSense_CSD_SIGNAL_SIZE_UINT8) */
 487:Generated_Source\PSoC5/CapSense_CSD_CSHL.c ****     }
 488:Generated_Source\PSoC5/CapSense_CSD_CSHL.c ****     else
 489:Generated_Source\PSoC5/CapSense_CSD_CSHL.c ****     {
 490:Generated_Source\PSoC5/CapSense_CSD_CSHL.c ****         /* Signal is zero */
 491:Generated_Source\PSoC5/CapSense_CSD_CSHL.c ****         CapSense_CSD_sensorSignal[sensor] = 0u;
 326              		.loc 1 491 0
 327 007c 0022     		movs	r2, #0
 328 007e 064B     		ldr	r3, .L29+16
 329 0080 23F81420 		strh	r2, [r3, r4, lsl #1]	@ movhi
 330 0084 70BD     		pop	{r4, r5, r6, pc}
 331              	.LVL39:
 332              	.L30:
 333 0086 00BF     		.align	2
 334              	.L29:
 335 0088 00000000 		.word	CapSense_CSD_sensorRaw
 336 008c 00000000 		.word	CapSense_CSD_sensorBaseline
 337 0090 00000000 		.word	CapSense_CSD_lowBaselineResetCnt
 338 0094 00000000 		.word	CapSense_CSD_sensorBaselineLow
 339 0098 00000000 		.word	CapSense_CSD_sensorSignal
 340              		.cfi_endproc
 341              	.LFE4:
 342              		.size	CapSense_CSD_UpdateSensorBaseline, .-CapSense_CSD_UpdateSensorBaseline
 343              		.section	.text.CapSense_CSD_UpdateEnabledBaselines,"ax",%progbits
 344              		.align	2
 345              		.global	CapSense_CSD_UpdateEnabledBaselines
 346              		.thumb
 347              		.thumb_func
 348              		.type	CapSense_CSD_UpdateEnabledBaselines, %function
 349              	CapSense_CSD_UpdateEnabledBaselines:
 350              	.LFB5:
 492:Generated_Source\PSoC5/CapSense_CSD_CSHL.c ****     }
 493:Generated_Source\PSoC5/CapSense_CSD_CSHL.c **** 
 494:Generated_Source\PSoC5/CapSense_CSD_CSHL.c ****     #if (CapSense_CSD_TOTAL_GENERICS_COUNT)
 495:Generated_Source\PSoC5/CapSense_CSD_CSHL.c ****         /* Exclude generic widget */
 496:Generated_Source\PSoC5/CapSense_CSD_CSHL.c ****         }
 497:Generated_Source\PSoC5/CapSense_CSD_CSHL.c ****     #endif  /* CapSense_CSD_TOTAL_GENERICS_COUNT */
 498:Generated_Source\PSoC5/CapSense_CSD_CSHL.c **** }
 499:Generated_Source\PSoC5/CapSense_CSD_CSHL.c **** 
 500:Generated_Source\PSoC5/CapSense_CSD_CSHL.c **** 
 501:Generated_Source\PSoC5/CapSense_CSD_CSHL.c **** /*******************************************************************************
ARM GAS  C:\Users\sinow\AppData\Local\Temp\ccPiF27t.s 			page 16


 502:Generated_Source\PSoC5/CapSense_CSD_CSHL.c **** * Function Name: CapSense_CSD_UpdateEnabledBaselines
 503:Generated_Source\PSoC5/CapSense_CSD_CSHL.c **** ********************************************************************************
 504:Generated_Source\PSoC5/CapSense_CSD_CSHL.c **** *
 505:Generated_Source\PSoC5/CapSense_CSD_CSHL.c **** * Summary:
 506:Generated_Source\PSoC5/CapSense_CSD_CSHL.c **** *  Checks CapSense_CSD_sensorEnableMask[] array and calls the 
 507:Generated_Source\PSoC5/CapSense_CSD_CSHL.c **** *  CapSense_CSD_UpdateSensorBaseline function to update the baselines 
 508:Generated_Source\PSoC5/CapSense_CSD_CSHL.c **** *  for enabled sensors.
 509:Generated_Source\PSoC5/CapSense_CSD_CSHL.c **** *
 510:Generated_Source\PSoC5/CapSense_CSD_CSHL.c **** * Parameters:
 511:Generated_Source\PSoC5/CapSense_CSD_CSHL.c **** *  None
 512:Generated_Source\PSoC5/CapSense_CSD_CSHL.c **** *
 513:Generated_Source\PSoC5/CapSense_CSD_CSHL.c **** * Return:
 514:Generated_Source\PSoC5/CapSense_CSD_CSHL.c **** *  None
 515:Generated_Source\PSoC5/CapSense_CSD_CSHL.c **** *
 516:Generated_Source\PSoC5/CapSense_CSD_CSHL.c **** * Global Variables:
 517:Generated_Source\PSoC5/CapSense_CSD_CSHL.c **** *  CapSense_CSD_sensorEnableMask[] - used to store the sensor scanning 
 518:Generated_Source\PSoC5/CapSense_CSD_CSHL.c **** *  state.
 519:Generated_Source\PSoC5/CapSense_CSD_CSHL.c **** *  CapSense_CSD_sensorEnableMask[0] contains the masked bits for sensors 
 520:Generated_Source\PSoC5/CapSense_CSD_CSHL.c **** *   0 through 7 (sensor 0 is bit 0, sensor 1 is bit 1).
 521:Generated_Source\PSoC5/CapSense_CSD_CSHL.c **** *  CapSense_CSD_sensorEnableMask[1] contains the masked bits for 
 522:Generated_Source\PSoC5/CapSense_CSD_CSHL.c **** *  sensors 8 through 15 (if needed), and so on.
 523:Generated_Source\PSoC5/CapSense_CSD_CSHL.c **** *  0 - sensor doesn't scan by CapSense_CSD_ScanEnabledWidgets().
 524:Generated_Source\PSoC5/CapSense_CSD_CSHL.c **** *  1 - sensor scans by CapSense_CSD_ScanEnabledWidgets().
 525:Generated_Source\PSoC5/CapSense_CSD_CSHL.c **** *
 526:Generated_Source\PSoC5/CapSense_CSD_CSHL.c **** * Reentrant:
 527:Generated_Source\PSoC5/CapSense_CSD_CSHL.c **** *  No
 528:Generated_Source\PSoC5/CapSense_CSD_CSHL.c **** *
 529:Generated_Source\PSoC5/CapSense_CSD_CSHL.c **** *******************************************************************************/
 530:Generated_Source\PSoC5/CapSense_CSD_CSHL.c ****  void CapSense_CSD_UpdateEnabledBaselines(void)
 531:Generated_Source\PSoC5/CapSense_CSD_CSHL.c ****                                  
 532:Generated_Source\PSoC5/CapSense_CSD_CSHL.c **** {
 351              		.loc 1 532 0
 352              		.cfi_startproc
 353              		@ args = 0, pretend = 0, frame = 0
 354              		@ frame_needed = 0, uses_anonymous_args = 0
 355 0000 10B5     		push	{r4, lr}
 356              		.cfi_def_cfa_offset 8
 357              		.cfi_offset 4, -8
 358              		.cfi_offset 14, -4
 359              	.LVL40:
 533:Generated_Source\PSoC5/CapSense_CSD_CSHL.c ****     uint8 i;
 534:Generated_Source\PSoC5/CapSense_CSD_CSHL.c ****     uint8 pos;
 535:Generated_Source\PSoC5/CapSense_CSD_CSHL.c ****     uint8 enMask;
 536:Generated_Source\PSoC5/CapSense_CSD_CSHL.c ****     
 537:Generated_Source\PSoC5/CapSense_CSD_CSHL.c ****     for(i = 0u; i < CapSense_CSD_TOTAL_SENSOR_COUNT; i++)
 360              		.loc 1 537 0
 361 0002 0024     		movs	r4, #0
 362 0004 0DE0     		b	.L32
 363              	.LVL41:
 364              	.L34:
 538:Generated_Source\PSoC5/CapSense_CSD_CSHL.c ****     {
 539:Generated_Source\PSoC5/CapSense_CSD_CSHL.c ****         pos = (i >> 3u);
 365              		.loc 1 539 0
 366 0006 E208     		lsrs	r2, r4, #3
 540:Generated_Source\PSoC5/CapSense_CSD_CSHL.c ****         enMask = (uint8)(0x01u << (i & 0x07u));
 367              		.loc 1 540 0
 368 0008 04F00701 		and	r1, r4, #7
ARM GAS  C:\Users\sinow\AppData\Local\Temp\ccPiF27t.s 			page 17


 369 000c 0123     		movs	r3, #1
 370 000e 8B40     		lsls	r3, r3, r1
 371              	.LVL42:
 541:Generated_Source\PSoC5/CapSense_CSD_CSHL.c ****         if((CapSense_CSD_sensorEnableMask[pos] & enMask) != 0u)
 372              		.loc 1 541 0
 373 0010 0549     		ldr	r1, .L36
 374 0012 8A5C     		ldrb	r2, [r1, r2]	@ zero_extendqisi2
 375 0014 1342     		tst	r3, r2
 376 0016 02D0     		beq	.L33
 542:Generated_Source\PSoC5/CapSense_CSD_CSHL.c ****         {
 543:Generated_Source\PSoC5/CapSense_CSD_CSHL.c ****             CapSense_CSD_UpdateSensorBaseline(i);
 377              		.loc 1 543 0
 378 0018 2046     		mov	r0, r4
 379 001a FFF7FEFF 		bl	CapSense_CSD_UpdateSensorBaseline
 380              	.LVL43:
 381              	.L33:
 537:Generated_Source\PSoC5/CapSense_CSD_CSHL.c ****     {
 382              		.loc 1 537 0 discriminator 2
 383 001e 0134     		adds	r4, r4, #1
 384              	.LVL44:
 385 0020 E4B2     		uxtb	r4, r4
 386              	.LVL45:
 387              	.L32:
 537:Generated_Source\PSoC5/CapSense_CSD_CSHL.c ****     {
 388              		.loc 1 537 0 is_stmt 0 discriminator 1
 389 0022 042C     		cmp	r4, #4
 390 0024 EFD9     		bls	.L34
 544:Generated_Source\PSoC5/CapSense_CSD_CSHL.c ****         }
 545:Generated_Source\PSoC5/CapSense_CSD_CSHL.c ****     }
 546:Generated_Source\PSoC5/CapSense_CSD_CSHL.c **** }
 391              		.loc 1 546 0 is_stmt 1
 392 0026 10BD     		pop	{r4, pc}
 393              	.LVL46:
 394              	.L37:
 395              		.align	2
 396              	.L36:
 397 0028 00000000 		.word	CapSense_CSD_sensorEnableMask
 398              		.cfi_endproc
 399              	.LFE5:
 400              		.size	CapSense_CSD_UpdateEnabledBaselines, .-CapSense_CSD_UpdateEnabledBaselines
 401              		.section	.text.CapSense_CSD_CheckIsSensorActive,"ax",%progbits
 402              		.align	2
 403              		.global	CapSense_CSD_CheckIsSensorActive
 404              		.thumb
 405              		.thumb_func
 406              		.type	CapSense_CSD_CheckIsSensorActive, %function
 407              	CapSense_CSD_CheckIsSensorActive:
 408              	.LFB6:
 547:Generated_Source\PSoC5/CapSense_CSD_CSHL.c **** 
 548:Generated_Source\PSoC5/CapSense_CSD_CSHL.c **** 
 549:Generated_Source\PSoC5/CapSense_CSD_CSHL.c **** /*******************************************************************************
 550:Generated_Source\PSoC5/CapSense_CSD_CSHL.c **** * Function Name: CapSense_CSD_CheckIsSensorActive
 551:Generated_Source\PSoC5/CapSense_CSD_CSHL.c **** ********************************************************************************
 552:Generated_Source\PSoC5/CapSense_CSD_CSHL.c **** *
 553:Generated_Source\PSoC5/CapSense_CSD_CSHL.c **** * Summary:
 554:Generated_Source\PSoC5/CapSense_CSD_CSHL.c **** *  Compares the CapSense_CSD_SensorSignal[sensor] array element to finger
 555:Generated_Source\PSoC5/CapSense_CSD_CSHL.c **** *  threshold of widget it belongs to. The hysteresis and debounce are taken into 
ARM GAS  C:\Users\sinow\AppData\Local\Temp\ccPiF27t.s 			page 18


 556:Generated_Source\PSoC5/CapSense_CSD_CSHL.c **** *  account. The hysteresis is added or subtracted from the finger threshold 
 557:Generated_Source\PSoC5/CapSense_CSD_CSHL.c **** *  based on whether the sensor is currently active. 
 558:Generated_Source\PSoC5/CapSense_CSD_CSHL.c **** *  If the sensor is active, the threshold is lowered by the hysteresis amount.
 559:Generated_Source\PSoC5/CapSense_CSD_CSHL.c **** *  If the sensor is inactive, the threshold is raised by the hysteresis amount.
 560:Generated_Source\PSoC5/CapSense_CSD_CSHL.c **** *  The debounce counter added to the sensor active transition.
 561:Generated_Source\PSoC5/CapSense_CSD_CSHL.c **** *  This function updates CapSense_CSD_SensorOnMask[] array element.
 562:Generated_Source\PSoC5/CapSense_CSD_CSHL.c **** *
 563:Generated_Source\PSoC5/CapSense_CSD_CSHL.c **** * Parameters:
 564:Generated_Source\PSoC5/CapSense_CSD_CSHL.c **** *  sensor:  Sensor number.
 565:Generated_Source\PSoC5/CapSense_CSD_CSHL.c **** *
 566:Generated_Source\PSoC5/CapSense_CSD_CSHL.c **** * Return:
 567:Generated_Source\PSoC5/CapSense_CSD_CSHL.c **** *  Returns sensor state 1 if active, 0 if not active.
 568:Generated_Source\PSoC5/CapSense_CSD_CSHL.c **** *
 569:Generated_Source\PSoC5/CapSense_CSD_CSHL.c **** * Global Variables:
 570:Generated_Source\PSoC5/CapSense_CSD_CSHL.c **** *  CapSense_CSD_sensorSignal[]      - used to store diffence between 
 571:Generated_Source\PSoC5/CapSense_CSD_CSHL.c **** *  current value of raw data and previous value of baseline.
 572:Generated_Source\PSoC5/CapSense_CSD_CSHL.c **** *  CapSense_CSD_debounceCounter[]   - used to store current debounce 
 573:Generated_Source\PSoC5/CapSense_CSD_CSHL.c **** *  counter of sensor. Widget which has this parameter are buttons, matrix 
 574:Generated_Source\PSoC5/CapSense_CSD_CSHL.c **** *  buttons, proximity, guard. All other widgets haven't debounce parameter
 575:Generated_Source\PSoC5/CapSense_CSD_CSHL.c **** *  and use the last element of this array with value 0 (it means no debounce).
 576:Generated_Source\PSoC5/CapSense_CSD_CSHL.c **** *  CapSense_CSD_sensorOnMask[] - used to store sensors on/off state.
 577:Generated_Source\PSoC5/CapSense_CSD_CSHL.c **** *  CapSense_CSD_sensorOnMask[0] contains the masked bits for sensors 
 578:Generated_Source\PSoC5/CapSense_CSD_CSHL.c **** *   0 through 7 (sensor 0 is bit 0, sensor 1 is bit 1).
 579:Generated_Source\PSoC5/CapSense_CSD_CSHL.c **** *  CapSense_CSD_sensorEnableMask[1] contains the masked bits for 
 580:Generated_Source\PSoC5/CapSense_CSD_CSHL.c **** *  sensors 8 through 15 (if needed), and so on.
 581:Generated_Source\PSoC5/CapSense_CSD_CSHL.c **** *  0 - sensor is inactive.
 582:Generated_Source\PSoC5/CapSense_CSD_CSHL.c **** *  1 - sensor is active.
 583:Generated_Source\PSoC5/CapSense_CSD_CSHL.c **** *
 584:Generated_Source\PSoC5/CapSense_CSD_CSHL.c **** * Reentrant:
 585:Generated_Source\PSoC5/CapSense_CSD_CSHL.c **** *  No
 586:Generated_Source\PSoC5/CapSense_CSD_CSHL.c **** *
 587:Generated_Source\PSoC5/CapSense_CSD_CSHL.c **** *******************************************************************************/
 588:Generated_Source\PSoC5/CapSense_CSD_CSHL.c **** uint8 CapSense_CSD_CheckIsSensorActive(uint8 sensor)
 589:Generated_Source\PSoC5/CapSense_CSD_CSHL.c ****                                   
 590:Generated_Source\PSoC5/CapSense_CSD_CSHL.c **** {
 409              		.loc 1 590 0
 410              		.cfi_startproc
 411              		@ args = 0, pretend = 0, frame = 0
 412              		@ frame_needed = 0, uses_anonymous_args = 0
 413              		@ link register save eliminated.
 414              	.LVL47:
 415 0000 10B4     		push	{r4}
 416              		.cfi_def_cfa_offset 4
 417              		.cfi_offset 4, -4
 591:Generated_Source\PSoC5/CapSense_CSD_CSHL.c ****     uint8 debounceIndex;
 592:Generated_Source\PSoC5/CapSense_CSD_CSHL.c ****     /* Get On/Off mask */
 593:Generated_Source\PSoC5/CapSense_CSD_CSHL.c ****     uint8 pos = (sensor >> 3u);
 418              		.loc 1 593 0
 419 0002 C208     		lsrs	r2, r0, #3
 420              	.LVL48:
 594:Generated_Source\PSoC5/CapSense_CSD_CSHL.c ****     uint8 onMask = 0x01u << (sensor & 0x07u);
 421              		.loc 1 594 0
 422 0004 00F00703 		and	r3, r0, #7
 423 0008 0121     		movs	r1, #1
 424 000a 01FA03F3 		lsl	r3, r1, r3
 425 000e DBB2     		uxtb	r3, r3
 426              	.LVL49:
ARM GAS  C:\Users\sinow\AppData\Local\Temp\ccPiF27t.s 			page 19


 595:Generated_Source\PSoC5/CapSense_CSD_CSHL.c ****     /* Prepare to find debounce counter index */
 596:Generated_Source\PSoC5/CapSense_CSD_CSHL.c ****     uint8 widget = CapSense_CSD_widgetNumber[sensor];
 597:Generated_Source\PSoC5/CapSense_CSD_CSHL.c ****     uint16 fingerThreshold = CapSense_CSD_fingerThreshold[widget];
 598:Generated_Source\PSoC5/CapSense_CSD_CSHL.c ****     uint16 hysteresis = CapSense_CSD_hysteresis[widget];
 599:Generated_Source\PSoC5/CapSense_CSD_CSHL.c ****     uint8 debounce = CapSense_CSD_debounce[widget];
 600:Generated_Source\PSoC5/CapSense_CSD_CSHL.c ****     
 601:Generated_Source\PSoC5/CapSense_CSD_CSHL.c ****     debounceIndex = CapSense_CSD_UNUSED_DEBOUNCE_COUNTER_INDEX;
 602:Generated_Source\PSoC5/CapSense_CSD_CSHL.c ****     CapSense_CSD_debounceCounter[debounceIndex] = 1u;
 427              		.loc 1 602 0
 428 0010 104C     		ldr	r4, .L43
 429 0012 2170     		strb	r1, [r4]
 603:Generated_Source\PSoC5/CapSense_CSD_CSHL.c **** 
 604:Generated_Source\PSoC5/CapSense_CSD_CSHL.c ****     
 605:Generated_Source\PSoC5/CapSense_CSD_CSHL.c ****     /* Was on */
 606:Generated_Source\PSoC5/CapSense_CSD_CSHL.c ****     if (0u != (CapSense_CSD_sensorOnMask[pos] & onMask))
 430              		.loc 1 606 0
 431 0014 1049     		ldr	r1, .L43+4
 432 0016 895C     		ldrb	r1, [r1, r2]	@ zero_extendqisi2
 433 0018 0B42     		tst	r3, r1
 434 001a 09D0     		beq	.L39
 607:Generated_Source\PSoC5/CapSense_CSD_CSHL.c ****     {
 608:Generated_Source\PSoC5/CapSense_CSD_CSHL.c ****         /* Hysteresis minus */
 609:Generated_Source\PSoC5/CapSense_CSD_CSHL.c ****         if (CapSense_CSD_sensorSignal[sensor] < (fingerThreshold - hysteresis))
 435              		.loc 1 609 0
 436 001c 0F4C     		ldr	r4, .L43+8
 437 001e 34F81000 		ldrh	r0, [r4, r0, lsl #1]
 438              	.LVL50:
 439 0022 5328     		cmp	r0, #83
 440 0024 0FDC     		bgt	.L40
 610:Generated_Source\PSoC5/CapSense_CSD_CSHL.c ****         {
 611:Generated_Source\PSoC5/CapSense_CSD_CSHL.c ****             CapSense_CSD_sensorOnMask[pos] &= (uint8)~onMask;
 441              		.loc 1 611 0
 442 0026 21EA0301 		bic	r1, r1, r3
 443 002a 0B48     		ldr	r0, .L43+4
 444 002c 8154     		strb	r1, [r0, r2]
 445 002e 0AE0     		b	.L40
 446              	.LVL51:
 447              	.L39:
 612:Generated_Source\PSoC5/CapSense_CSD_CSHL.c ****             CapSense_CSD_debounceCounter[debounceIndex] = debounce; 
 613:Generated_Source\PSoC5/CapSense_CSD_CSHL.c ****         }
 614:Generated_Source\PSoC5/CapSense_CSD_CSHL.c ****     }
 615:Generated_Source\PSoC5/CapSense_CSD_CSHL.c ****     else    /* Was off */
 616:Generated_Source\PSoC5/CapSense_CSD_CSHL.c ****     {
 617:Generated_Source\PSoC5/CapSense_CSD_CSHL.c ****         /* Hysteresis plus */
 618:Generated_Source\PSoC5/CapSense_CSD_CSHL.c ****         if (CapSense_CSD_sensorSignal[sensor] > (fingerThreshold + hysteresis))
 448              		.loc 1 618 0
 449 0030 0A4C     		ldr	r4, .L43+8
 450 0032 34F81000 		ldrh	r0, [r4, r0, lsl #1]
 451              	.LVL52:
 452 0036 5428     		cmp	r0, #84
 453 0038 05DD     		ble	.L40
 619:Generated_Source\PSoC5/CapSense_CSD_CSHL.c ****         {
 620:Generated_Source\PSoC5/CapSense_CSD_CSHL.c ****             /* Sensor active, decrement debounce counter */
 621:Generated_Source\PSoC5/CapSense_CSD_CSHL.c ****             if (CapSense_CSD_debounceCounter[debounceIndex] <= 1u)
 622:Generated_Source\PSoC5/CapSense_CSD_CSHL.c ****             {
 623:Generated_Source\PSoC5/CapSense_CSD_CSHL.c ****                 CapSense_CSD_sensorOnMask[pos] |= onMask; 
 454              		.loc 1 623 0
ARM GAS  C:\Users\sinow\AppData\Local\Temp\ccPiF27t.s 			page 20


 455 003a 1943     		orrs	r1, r1, r3
 456 003c 0648     		ldr	r0, .L43+4
 457 003e 8154     		strb	r1, [r0, r2]
 624:Generated_Source\PSoC5/CapSense_CSD_CSHL.c ****             }
 625:Generated_Source\PSoC5/CapSense_CSD_CSHL.c ****             CapSense_CSD_debounceCounter[debounceIndex]--;
 458              		.loc 1 625 0
 459 0040 0020     		movs	r0, #0
 460 0042 0449     		ldr	r1, .L43
 461 0044 0870     		strb	r0, [r1]
 462              	.L40:
 626:Generated_Source\PSoC5/CapSense_CSD_CSHL.c ****         }
 627:Generated_Source\PSoC5/CapSense_CSD_CSHL.c ****         else
 628:Generated_Source\PSoC5/CapSense_CSD_CSHL.c ****         {
 629:Generated_Source\PSoC5/CapSense_CSD_CSHL.c ****             /* Sensor inactive - reset Debounce counter */
 630:Generated_Source\PSoC5/CapSense_CSD_CSHL.c ****             CapSense_CSD_debounceCounter[debounceIndex] = debounce;
 631:Generated_Source\PSoC5/CapSense_CSD_CSHL.c ****         }
 632:Generated_Source\PSoC5/CapSense_CSD_CSHL.c ****     }
 633:Generated_Source\PSoC5/CapSense_CSD_CSHL.c ****     
 634:Generated_Source\PSoC5/CapSense_CSD_CSHL.c ****     return (((CapSense_CSD_sensorOnMask[pos] & onMask) != 0u) ? 1u : 0u);
 463              		.loc 1 634 0
 464 0046 0449     		ldr	r1, .L43+4
 465 0048 885C     		ldrb	r0, [r1, r2]	@ zero_extendqisi2
 466 004a 1840     		ands	r0, r3, r0
 467 004c 00D0     		beq	.L41
 468 004e 0120     		movs	r0, #1
 469              	.L41:
 635:Generated_Source\PSoC5/CapSense_CSD_CSHL.c **** }
 470              		.loc 1 635 0 discriminator 4
 471 0050 10BC     		pop	{r4}
 472              		.cfi_restore 4
 473              		.cfi_def_cfa_offset 0
 474 0052 7047     		bx	lr
 475              	.L44:
 476              		.align	2
 477              	.L43:
 478 0054 00000000 		.word	.LANCHOR0
 479 0058 00000000 		.word	CapSense_CSD_sensorOnMask
 480 005c 00000000 		.word	CapSense_CSD_sensorSignal
 481              		.cfi_endproc
 482              	.LFE6:
 483              		.size	CapSense_CSD_CheckIsSensorActive, .-CapSense_CSD_CheckIsSensorActive
 484              		.section	.text.CapSense_CSD_CheckIsWidgetActive,"ax",%progbits
 485              		.align	2
 486              		.global	CapSense_CSD_CheckIsWidgetActive
 487              		.thumb
 488              		.thumb_func
 489              		.type	CapSense_CSD_CheckIsWidgetActive, %function
 490              	CapSense_CSD_CheckIsWidgetActive:
 491              	.LFB7:
 636:Generated_Source\PSoC5/CapSense_CSD_CSHL.c **** 
 637:Generated_Source\PSoC5/CapSense_CSD_CSHL.c **** 
 638:Generated_Source\PSoC5/CapSense_CSD_CSHL.c **** /*******************************************************************************
 639:Generated_Source\PSoC5/CapSense_CSD_CSHL.c **** * Function Name: CapSense_CSD_CheckIsWidgetActive
 640:Generated_Source\PSoC5/CapSense_CSD_CSHL.c **** ********************************************************************************
 641:Generated_Source\PSoC5/CapSense_CSD_CSHL.c **** *
 642:Generated_Source\PSoC5/CapSense_CSD_CSHL.c **** * Summary:
 643:Generated_Source\PSoC5/CapSense_CSD_CSHL.c **** *  Use function CapSense_CSD_CheckIsSensorActive() to update 
ARM GAS  C:\Users\sinow\AppData\Local\Temp\ccPiF27t.s 			page 21


 644:Generated_Source\PSoC5/CapSense_CSD_CSHL.c **** *  CapSense_CSD_sensorOnMask[] for all sensors within the widget.
 645:Generated_Source\PSoC5/CapSense_CSD_CSHL.c **** *  If one of sensors within widget is active the function return that widget is 
 646:Generated_Source\PSoC5/CapSense_CSD_CSHL.c **** *  active.
 647:Generated_Source\PSoC5/CapSense_CSD_CSHL.c **** *  The touch pad and matrix buttons widgets need to have active sensor within 
 648:Generated_Source\PSoC5/CapSense_CSD_CSHL.c **** *  col and row to return widget active status.
 649:Generated_Source\PSoC5/CapSense_CSD_CSHL.c **** *
 650:Generated_Source\PSoC5/CapSense_CSD_CSHL.c **** * Parameters:
 651:Generated_Source\PSoC5/CapSense_CSD_CSHL.c **** *  widget:  widget number.
 652:Generated_Source\PSoC5/CapSense_CSD_CSHL.c **** *
 653:Generated_Source\PSoC5/CapSense_CSD_CSHL.c **** * Return:
 654:Generated_Source\PSoC5/CapSense_CSD_CSHL.c **** *  Returns widget sensor state 1 if one or more sensors within widget is/are 
 655:Generated_Source\PSoC5/CapSense_CSD_CSHL.c **** *  active, 0 if all sensors within widget are inactive.
 656:Generated_Source\PSoC5/CapSense_CSD_CSHL.c **** *
 657:Generated_Source\PSoC5/CapSense_CSD_CSHL.c **** * Reentrant:
 658:Generated_Source\PSoC5/CapSense_CSD_CSHL.c **** *  No
 659:Generated_Source\PSoC5/CapSense_CSD_CSHL.c **** *
 660:Generated_Source\PSoC5/CapSense_CSD_CSHL.c **** *******************************************************************************/
 661:Generated_Source\PSoC5/CapSense_CSD_CSHL.c **** uint8 CapSense_CSD_CheckIsWidgetActive(uint8 widget)
 662:Generated_Source\PSoC5/CapSense_CSD_CSHL.c ****                                  
 663:Generated_Source\PSoC5/CapSense_CSD_CSHL.c **** {
 492              		.loc 1 663 0
 493              		.cfi_startproc
 494              		@ args = 0, pretend = 0, frame = 0
 495              		@ frame_needed = 0, uses_anonymous_args = 0
 496              	.LVL53:
 497 0000 38B5     		push	{r3, r4, r5, lr}
 498              		.cfi_def_cfa_offset 16
 499              		.cfi_offset 3, -16
 500              		.cfi_offset 4, -12
 501              		.cfi_offset 5, -8
 502              		.cfi_offset 14, -4
 503              	.LVL54:
 664:Generated_Source\PSoC5/CapSense_CSD_CSHL.c ****     uint8 rawIndex = CapSense_CSD_rawDataIndex[widget];
 665:Generated_Source\PSoC5/CapSense_CSD_CSHL.c ****     uint8 numberOfSensors = CapSense_CSD_numberOfSensors[widget] + rawIndex;
 666:Generated_Source\PSoC5/CapSense_CSD_CSHL.c ****     uint8 state = 0u;
 504              		.loc 1 666 0
 505 0002 0025     		movs	r5, #0
 664:Generated_Source\PSoC5/CapSense_CSD_CSHL.c ****     uint8 rawIndex = CapSense_CSD_rawDataIndex[widget];
 506              		.loc 1 664 0
 507 0004 2C46     		mov	r4, r5
 508              	.LVL55:
 509              	.L47:
 667:Generated_Source\PSoC5/CapSense_CSD_CSHL.c **** 
 668:Generated_Source\PSoC5/CapSense_CSD_CSHL.c ****     /* Check all sensors of the widget */
 669:Generated_Source\PSoC5/CapSense_CSD_CSHL.c ****     do
 670:Generated_Source\PSoC5/CapSense_CSD_CSHL.c ****     {
 671:Generated_Source\PSoC5/CapSense_CSD_CSHL.c ****         if(CapSense_CSD_CheckIsSensorActive(rawIndex) != 0u)
 510              		.loc 1 671 0
 511 0006 2046     		mov	r0, r4
 512 0008 FFF7FEFF 		bl	CapSense_CSD_CheckIsSensorActive
 513              	.LVL56:
 514 000c 00B1     		cbz	r0, .L46
 672:Generated_Source\PSoC5/CapSense_CSD_CSHL.c ****         {
 673:Generated_Source\PSoC5/CapSense_CSD_CSHL.c ****             state = CapSense_CSD_SENSOR_1_IS_ACTIVE;
 515              		.loc 1 673 0
 516 000e 0125     		movs	r5, #1
 517              	.LVL57:
ARM GAS  C:\Users\sinow\AppData\Local\Temp\ccPiF27t.s 			page 22


 518              	.L46:
 674:Generated_Source\PSoC5/CapSense_CSD_CSHL.c ****         }
 675:Generated_Source\PSoC5/CapSense_CSD_CSHL.c ****         rawIndex++;
 519              		.loc 1 675 0
 520 0010 0134     		adds	r4, r4, #1
 521              	.LVL58:
 522 0012 E4B2     		uxtb	r4, r4
 523              	.LVL59:
 676:Generated_Source\PSoC5/CapSense_CSD_CSHL.c ****     }
 677:Generated_Source\PSoC5/CapSense_CSD_CSHL.c ****     while(rawIndex < numberOfSensors);
 524              		.loc 1 677 0
 525 0014 042C     		cmp	r4, #4
 526 0016 F6D9     		bls	.L47
 678:Generated_Source\PSoC5/CapSense_CSD_CSHL.c ****     
 679:Generated_Source\PSoC5/CapSense_CSD_CSHL.c **** 
 680:Generated_Source\PSoC5/CapSense_CSD_CSHL.c ****     
 681:Generated_Source\PSoC5/CapSense_CSD_CSHL.c ****     return (state);
 682:Generated_Source\PSoC5/CapSense_CSD_CSHL.c **** }
 527              		.loc 1 682 0
 528 0018 2846     		mov	r0, r5
 529 001a 38BD     		pop	{r3, r4, r5, pc}
 530              		.cfi_endproc
 531              	.LFE7:
 532              		.size	CapSense_CSD_CheckIsWidgetActive, .-CapSense_CSD_CheckIsWidgetActive
 533              		.section	.text.CapSense_CSD_CheckIsAnyWidgetActive,"ax",%progbits
 534              		.align	2
 535              		.global	CapSense_CSD_CheckIsAnyWidgetActive
 536              		.thumb
 537              		.thumb_func
 538              		.type	CapSense_CSD_CheckIsAnyWidgetActive, %function
 539              	CapSense_CSD_CheckIsAnyWidgetActive:
 540              	.LFB8:
 683:Generated_Source\PSoC5/CapSense_CSD_CSHL.c **** 
 684:Generated_Source\PSoC5/CapSense_CSD_CSHL.c **** 
 685:Generated_Source\PSoC5/CapSense_CSD_CSHL.c **** /*******************************************************************************
 686:Generated_Source\PSoC5/CapSense_CSD_CSHL.c **** * Function Name: CapSense_CSD_CheckIsAnyWidgetActive
 687:Generated_Source\PSoC5/CapSense_CSD_CSHL.c **** ********************************************************************************
 688:Generated_Source\PSoC5/CapSense_CSD_CSHL.c **** *
 689:Generated_Source\PSoC5/CapSense_CSD_CSHL.c **** * Summary:
 690:Generated_Source\PSoC5/CapSense_CSD_CSHL.c **** *  Compares all sensors of the CapSense_CSD_signal[] array to their finger 
 691:Generated_Source\PSoC5/CapSense_CSD_CSHL.c **** *  threshold. Calls CapSense_CSD_CheckIsWidgetActive() for each widget so 
 692:Generated_Source\PSoC5/CapSense_CSD_CSHL.c **** *  the CapSense_CSD_SensorOnMask[] array is up to date after calling this 
 693:Generated_Source\PSoC5/CapSense_CSD_CSHL.c **** *  function.
 694:Generated_Source\PSoC5/CapSense_CSD_CSHL.c **** *
 695:Generated_Source\PSoC5/CapSense_CSD_CSHL.c **** * Parameters:
 696:Generated_Source\PSoC5/CapSense_CSD_CSHL.c **** *  widget:  widget number.
 697:Generated_Source\PSoC5/CapSense_CSD_CSHL.c **** *
 698:Generated_Source\PSoC5/CapSense_CSD_CSHL.c **** * Return:
 699:Generated_Source\PSoC5/CapSense_CSD_CSHL.c **** *  Returns 1 if any widget is active, 0 none of widgets are active.
 700:Generated_Source\PSoC5/CapSense_CSD_CSHL.c **** *
 701:Generated_Source\PSoC5/CapSense_CSD_CSHL.c **** * Reentrant:
 702:Generated_Source\PSoC5/CapSense_CSD_CSHL.c **** *  No
 703:Generated_Source\PSoC5/CapSense_CSD_CSHL.c **** *
 704:Generated_Source\PSoC5/CapSense_CSD_CSHL.c **** *******************************************************************************/
 705:Generated_Source\PSoC5/CapSense_CSD_CSHL.c **** uint8 CapSense_CSD_CheckIsAnyWidgetActive(void)
 706:Generated_Source\PSoC5/CapSense_CSD_CSHL.c ****                                  
 707:Generated_Source\PSoC5/CapSense_CSD_CSHL.c **** {
ARM GAS  C:\Users\sinow\AppData\Local\Temp\ccPiF27t.s 			page 23


 541              		.loc 1 707 0
 542              		.cfi_startproc
 543              		@ args = 0, pretend = 0, frame = 0
 544              		@ frame_needed = 0, uses_anonymous_args = 0
 545 0000 38B5     		push	{r3, r4, r5, lr}
 546              		.cfi_def_cfa_offset 16
 547              		.cfi_offset 3, -16
 548              		.cfi_offset 4, -12
 549              		.cfi_offset 5, -8
 550              		.cfi_offset 14, -4
 551              	.LVL60:
 708:Generated_Source\PSoC5/CapSense_CSD_CSHL.c ****     uint8 i;
 709:Generated_Source\PSoC5/CapSense_CSD_CSHL.c ****     uint8 state = 0u;
 552              		.loc 1 709 0
 553 0002 0025     		movs	r5, #0
 710:Generated_Source\PSoC5/CapSense_CSD_CSHL.c ****     
 711:Generated_Source\PSoC5/CapSense_CSD_CSHL.c ****     for(i = 0u; i < CapSense_CSD_TOTAL_WIDGET_COUNT; i++)
 554              		.loc 1 711 0
 555 0004 2C46     		mov	r4, r5
 556 0006 06E0     		b	.L51
 557              	.LVL61:
 558              	.L53:
 712:Generated_Source\PSoC5/CapSense_CSD_CSHL.c ****     {
 713:Generated_Source\PSoC5/CapSense_CSD_CSHL.c ****         if (CapSense_CSD_CheckIsWidgetActive(i) != 0u)
 559              		.loc 1 713 0
 560 0008 2046     		mov	r0, r4
 561 000a FFF7FEFF 		bl	CapSense_CSD_CheckIsWidgetActive
 562              	.LVL62:
 563 000e 00B1     		cbz	r0, .L52
 714:Generated_Source\PSoC5/CapSense_CSD_CSHL.c ****         {
 715:Generated_Source\PSoC5/CapSense_CSD_CSHL.c ****             state = CapSense_CSD_WIDGET_IS_ACTIVE;
 564              		.loc 1 715 0
 565 0010 0125     		movs	r5, #1
 566              	.LVL63:
 567              	.L52:
 711:Generated_Source\PSoC5/CapSense_CSD_CSHL.c ****     {
 568              		.loc 1 711 0 discriminator 2
 569 0012 0134     		adds	r4, r4, #1
 570              	.LVL64:
 571 0014 E4B2     		uxtb	r4, r4
 572              	.LVL65:
 573              	.L51:
 711:Generated_Source\PSoC5/CapSense_CSD_CSHL.c ****     {
 574              		.loc 1 711 0 is_stmt 0 discriminator 1
 575 0016 002C     		cmp	r4, #0
 576 0018 F6D0     		beq	.L53
 716:Generated_Source\PSoC5/CapSense_CSD_CSHL.c ****         }
 717:Generated_Source\PSoC5/CapSense_CSD_CSHL.c ****     }
 718:Generated_Source\PSoC5/CapSense_CSD_CSHL.c ****     
 719:Generated_Source\PSoC5/CapSense_CSD_CSHL.c **** 
 720:Generated_Source\PSoC5/CapSense_CSD_CSHL.c ****     return (state);
 721:Generated_Source\PSoC5/CapSense_CSD_CSHL.c **** }
 577              		.loc 1 721 0 is_stmt 1
 578 001a 2846     		mov	r0, r5
 579 001c 38BD     		pop	{r3, r4, r5, pc}
 580              		.cfi_endproc
 581              	.LFE8:
ARM GAS  C:\Users\sinow\AppData\Local\Temp\ccPiF27t.s 			page 24


 582              		.size	CapSense_CSD_CheckIsAnyWidgetActive, .-CapSense_CSD_CheckIsAnyWidgetActive
 583 001e 00BF     		.section	.text.CapSense_CSD_EnableWidget,"ax",%progbits
 584              		.align	2
 585              		.global	CapSense_CSD_EnableWidget
 586              		.thumb
 587              		.thumb_func
 588              		.type	CapSense_CSD_EnableWidget, %function
 589              	CapSense_CSD_EnableWidget:
 590              	.LFB9:
 722:Generated_Source\PSoC5/CapSense_CSD_CSHL.c **** 
 723:Generated_Source\PSoC5/CapSense_CSD_CSHL.c **** 
 724:Generated_Source\PSoC5/CapSense_CSD_CSHL.c **** /*******************************************************************************
 725:Generated_Source\PSoC5/CapSense_CSD_CSHL.c **** * Function Name: CapSense_CSD_EnableWidget
 726:Generated_Source\PSoC5/CapSense_CSD_CSHL.c **** ********************************************************************************
 727:Generated_Source\PSoC5/CapSense_CSD_CSHL.c **** *
 728:Generated_Source\PSoC5/CapSense_CSD_CSHL.c **** * Summary:
 729:Generated_Source\PSoC5/CapSense_CSD_CSHL.c **** *  Enable all widget elements (sensors) to scanning process.
 730:Generated_Source\PSoC5/CapSense_CSD_CSHL.c **** *
 731:Generated_Source\PSoC5/CapSense_CSD_CSHL.c **** * Parameters:
 732:Generated_Source\PSoC5/CapSense_CSD_CSHL.c **** *  widget:  widget number.
 733:Generated_Source\PSoC5/CapSense_CSD_CSHL.c **** *
 734:Generated_Source\PSoC5/CapSense_CSD_CSHL.c **** * Return:
 735:Generated_Source\PSoC5/CapSense_CSD_CSHL.c **** *  None
 736:Generated_Source\PSoC5/CapSense_CSD_CSHL.c **** *
 737:Generated_Source\PSoC5/CapSense_CSD_CSHL.c **** * Global Variables:
 738:Generated_Source\PSoC5/CapSense_CSD_CSHL.c **** *  CapSense_CSD_sensorEnableMask[] - used to store the sensor scanning 
 739:Generated_Source\PSoC5/CapSense_CSD_CSHL.c **** *  state.
 740:Generated_Source\PSoC5/CapSense_CSD_CSHL.c **** *  CapSense_CSD_sensorEnableMask[0] contains the masked bits for sensors 
 741:Generated_Source\PSoC5/CapSense_CSD_CSHL.c **** *  0 through 7 (sensor 0 is bit 0, sensor 1 is bit 1).
 742:Generated_Source\PSoC5/CapSense_CSD_CSHL.c **** *  CapSense_CSD_sensorEnableMask[1] contains the masked bits for 
 743:Generated_Source\PSoC5/CapSense_CSD_CSHL.c **** *  sensors 8 through 15 (if needed), and so on.
 744:Generated_Source\PSoC5/CapSense_CSD_CSHL.c **** *  0 - sensor doesn't scan by CapSense_CSD_ScanEnabledWidgets().
 745:Generated_Source\PSoC5/CapSense_CSD_CSHL.c **** *  1 - sensor scans by CapSense_CSD_ScanEnabledWidgets().
 746:Generated_Source\PSoC5/CapSense_CSD_CSHL.c **** *
 747:Generated_Source\PSoC5/CapSense_CSD_CSHL.c **** * Reentrant:
 748:Generated_Source\PSoC5/CapSense_CSD_CSHL.c **** *  No
 749:Generated_Source\PSoC5/CapSense_CSD_CSHL.c **** *
 750:Generated_Source\PSoC5/CapSense_CSD_CSHL.c **** *******************************************************************************/
 751:Generated_Source\PSoC5/CapSense_CSD_CSHL.c **** void CapSense_CSD_EnableWidget(uint8 widget)
 752:Generated_Source\PSoC5/CapSense_CSD_CSHL.c ****                                    
 753:Generated_Source\PSoC5/CapSense_CSD_CSHL.c **** {
 591              		.loc 1 753 0
 592              		.cfi_startproc
 593              		@ args = 0, pretend = 0, frame = 0
 594              		@ frame_needed = 0, uses_anonymous_args = 0
 595              		@ link register save eliminated.
 596              	.LVL66:
 597 0000 10B4     		push	{r4}
 598              		.cfi_def_cfa_offset 4
 599              		.cfi_offset 4, -4
 600              	.LVL67:
 754:Generated_Source\PSoC5/CapSense_CSD_CSHL.c ****     uint8 pos;
 755:Generated_Source\PSoC5/CapSense_CSD_CSHL.c ****     uint8 enMask;
 756:Generated_Source\PSoC5/CapSense_CSD_CSHL.c ****     uint8 rawIndex = CapSense_CSD_rawDataIndex[widget];
 601              		.loc 1 756 0
 602 0002 0023     		movs	r3, #0
 603              	.LVL68:
ARM GAS  C:\Users\sinow\AppData\Local\Temp\ccPiF27t.s 			page 25


 604              	.L57:
 757:Generated_Source\PSoC5/CapSense_CSD_CSHL.c ****     uint8 numberOfSensors = CapSense_CSD_numberOfSensors[widget] + rawIndex;
 758:Generated_Source\PSoC5/CapSense_CSD_CSHL.c ****     
 759:Generated_Source\PSoC5/CapSense_CSD_CSHL.c ****     /* Enable all sensors of the widget */
 760:Generated_Source\PSoC5/CapSense_CSD_CSHL.c ****     do
 761:Generated_Source\PSoC5/CapSense_CSD_CSHL.c ****     {
 762:Generated_Source\PSoC5/CapSense_CSD_CSHL.c ****         pos = (rawIndex >> 3u);
 605              		.loc 1 762 0 discriminator 1
 606 0004 D808     		lsrs	r0, r3, #3
 607              	.LVL69:
 763:Generated_Source\PSoC5/CapSense_CSD_CSHL.c ****         enMask = 0x01u << (rawIndex & 0x07u);
 608              		.loc 1 763 0 discriminator 1
 609 0006 03F00701 		and	r1, r3, #7
 610 000a 0122     		movs	r2, #1
 611 000c 8A40     		lsls	r2, r2, r1
 612 000e D2B2     		uxtb	r2, r2
 613              	.LVL70:
 764:Generated_Source\PSoC5/CapSense_CSD_CSHL.c ****         
 765:Generated_Source\PSoC5/CapSense_CSD_CSHL.c ****         CapSense_CSD_sensorEnableMask[pos] |= enMask;
 614              		.loc 1 765 0 discriminator 1
 615 0010 044C     		ldr	r4, .L59
 616 0012 215C     		ldrb	r1, [r4, r0]	@ zero_extendqisi2
 617 0014 0A43     		orrs	r2, r2, r1
 618              	.LVL71:
 619 0016 2254     		strb	r2, [r4, r0]
 766:Generated_Source\PSoC5/CapSense_CSD_CSHL.c ****         rawIndex++;
 620              		.loc 1 766 0 discriminator 1
 621 0018 0133     		adds	r3, r3, #1
 622              	.LVL72:
 623 001a DBB2     		uxtb	r3, r3
 624              	.LVL73:
 767:Generated_Source\PSoC5/CapSense_CSD_CSHL.c ****     }
 768:Generated_Source\PSoC5/CapSense_CSD_CSHL.c ****     while(rawIndex < numberOfSensors);
 625              		.loc 1 768 0 discriminator 1
 626 001c 042B     		cmp	r3, #4
 627 001e F1D9     		bls	.L57
 769:Generated_Source\PSoC5/CapSense_CSD_CSHL.c ****     
 770:Generated_Source\PSoC5/CapSense_CSD_CSHL.c **** 
 771:Generated_Source\PSoC5/CapSense_CSD_CSHL.c **** }
 628              		.loc 1 771 0
 629 0020 10BC     		pop	{r4}
 630              		.cfi_restore 4
 631              		.cfi_def_cfa_offset 0
 632 0022 7047     		bx	lr
 633              	.L60:
 634              		.align	2
 635              	.L59:
 636 0024 00000000 		.word	CapSense_CSD_sensorEnableMask
 637              		.cfi_endproc
 638              	.LFE9:
 639              		.size	CapSense_CSD_EnableWidget, .-CapSense_CSD_EnableWidget
 640              		.section	.text.CapSense_CSD_DisableWidget,"ax",%progbits
 641              		.align	2
 642              		.global	CapSense_CSD_DisableWidget
 643              		.thumb
 644              		.thumb_func
 645              		.type	CapSense_CSD_DisableWidget, %function
ARM GAS  C:\Users\sinow\AppData\Local\Temp\ccPiF27t.s 			page 26


 646              	CapSense_CSD_DisableWidget:
 647              	.LFB10:
 772:Generated_Source\PSoC5/CapSense_CSD_CSHL.c **** 
 773:Generated_Source\PSoC5/CapSense_CSD_CSHL.c **** 
 774:Generated_Source\PSoC5/CapSense_CSD_CSHL.c **** /*******************************************************************************
 775:Generated_Source\PSoC5/CapSense_CSD_CSHL.c **** * Function Name: CapSense_CSD_DisableWidget
 776:Generated_Source\PSoC5/CapSense_CSD_CSHL.c **** ********************************************************************************
 777:Generated_Source\PSoC5/CapSense_CSD_CSHL.c **** *
 778:Generated_Source\PSoC5/CapSense_CSD_CSHL.c **** * Summary:
 779:Generated_Source\PSoC5/CapSense_CSD_CSHL.c **** *  Disable all widget elements (sensors) from scanning process.
 780:Generated_Source\PSoC5/CapSense_CSD_CSHL.c **** *
 781:Generated_Source\PSoC5/CapSense_CSD_CSHL.c **** * Parameters:
 782:Generated_Source\PSoC5/CapSense_CSD_CSHL.c **** *  widget:  widget number.
 783:Generated_Source\PSoC5/CapSense_CSD_CSHL.c **** *
 784:Generated_Source\PSoC5/CapSense_CSD_CSHL.c **** * Return:
 785:Generated_Source\PSoC5/CapSense_CSD_CSHL.c **** *  None
 786:Generated_Source\PSoC5/CapSense_CSD_CSHL.c **** *
 787:Generated_Source\PSoC5/CapSense_CSD_CSHL.c **** * Global Variables:
 788:Generated_Source\PSoC5/CapSense_CSD_CSHL.c **** *  CapSense_CSD_sensorEnableMask[] - used to store the sensor scanning 
 789:Generated_Source\PSoC5/CapSense_CSD_CSHL.c **** *  state.
 790:Generated_Source\PSoC5/CapSense_CSD_CSHL.c **** *  CapSense_CSD_sensorEnableMask[0] contains the masked bits for sensors 
 791:Generated_Source\PSoC5/CapSense_CSD_CSHL.c **** *  0 through 7 (sensor 0 is bit 0, sensor 1 is bit 1).
 792:Generated_Source\PSoC5/CapSense_CSD_CSHL.c **** *  CapSense_CSD_sensorEnableMask[1] contains the masked bits for 
 793:Generated_Source\PSoC5/CapSense_CSD_CSHL.c **** *  sensors 8 through 15 (if needed), and so on.
 794:Generated_Source\PSoC5/CapSense_CSD_CSHL.c **** *  0 - sensor doesn't scan by CapSense_CSD_ScanEnabledWidgets().
 795:Generated_Source\PSoC5/CapSense_CSD_CSHL.c **** *  1 - sensor scans by CapSense_CSD_ScanEnabledWidgets().
 796:Generated_Source\PSoC5/CapSense_CSD_CSHL.c **** *
 797:Generated_Source\PSoC5/CapSense_CSD_CSHL.c **** * Reentrant:
 798:Generated_Source\PSoC5/CapSense_CSD_CSHL.c **** *  No
 799:Generated_Source\PSoC5/CapSense_CSD_CSHL.c **** *
 800:Generated_Source\PSoC5/CapSense_CSD_CSHL.c **** *******************************************************************************/
 801:Generated_Source\PSoC5/CapSense_CSD_CSHL.c **** void CapSense_CSD_DisableWidget(uint8 widget)
 802:Generated_Source\PSoC5/CapSense_CSD_CSHL.c ****                                     
 803:Generated_Source\PSoC5/CapSense_CSD_CSHL.c **** {
 648              		.loc 1 803 0
 649              		.cfi_startproc
 650              		@ args = 0, pretend = 0, frame = 0
 651              		@ frame_needed = 0, uses_anonymous_args = 0
 652              		@ link register save eliminated.
 653              	.LVL74:
 654 0000 10B4     		push	{r4}
 655              		.cfi_def_cfa_offset 4
 656              		.cfi_offset 4, -4
 657              	.LVL75:
 804:Generated_Source\PSoC5/CapSense_CSD_CSHL.c ****     uint8 pos;
 805:Generated_Source\PSoC5/CapSense_CSD_CSHL.c ****     uint8 enMask;
 806:Generated_Source\PSoC5/CapSense_CSD_CSHL.c ****     uint8 rawIndex = CapSense_CSD_rawDataIndex[widget];
 658              		.loc 1 806 0
 659 0002 0023     		movs	r3, #0
 660              	.LVL76:
 661              	.L62:
 807:Generated_Source\PSoC5/CapSense_CSD_CSHL.c ****     uint8 numberOfSensors = CapSense_CSD_numberOfSensors[widget] + rawIndex;
 808:Generated_Source\PSoC5/CapSense_CSD_CSHL.c ****    
 809:Generated_Source\PSoC5/CapSense_CSD_CSHL.c ****     /* Disable all sensors of the widget */
 810:Generated_Source\PSoC5/CapSense_CSD_CSHL.c ****     do
 811:Generated_Source\PSoC5/CapSense_CSD_CSHL.c ****     {
 812:Generated_Source\PSoC5/CapSense_CSD_CSHL.c ****         pos = (rawIndex >> 3u);
ARM GAS  C:\Users\sinow\AppData\Local\Temp\ccPiF27t.s 			page 27


 662              		.loc 1 812 0 discriminator 1
 663 0004 D808     		lsrs	r0, r3, #3
 664              	.LVL77:
 813:Generated_Source\PSoC5/CapSense_CSD_CSHL.c ****         enMask = 0x01u << (rawIndex & 0x07u);
 665              		.loc 1 813 0 discriminator 1
 666 0006 03F00701 		and	r1, r3, #7
 667 000a 0122     		movs	r2, #1
 668 000c 8A40     		lsls	r2, r2, r1
 669 000e D2B2     		uxtb	r2, r2
 670              	.LVL78:
 814:Generated_Source\PSoC5/CapSense_CSD_CSHL.c ****         
 815:Generated_Source\PSoC5/CapSense_CSD_CSHL.c ****         CapSense_CSD_sensorEnableMask[pos] &= (uint8)~enMask;
 671              		.loc 1 815 0 discriminator 1
 672 0010 054C     		ldr	r4, .L64
 673 0012 215C     		ldrb	r1, [r4, r0]	@ zero_extendqisi2
 674 0014 21EA0202 		bic	r2, r1, r2
 675              	.LVL79:
 676 0018 2254     		strb	r2, [r4, r0]
 816:Generated_Source\PSoC5/CapSense_CSD_CSHL.c ****         rawIndex++;
 677              		.loc 1 816 0 discriminator 1
 678 001a 0133     		adds	r3, r3, #1
 679              	.LVL80:
 680 001c DBB2     		uxtb	r3, r3
 681              	.LVL81:
 817:Generated_Source\PSoC5/CapSense_CSD_CSHL.c ****     }
 818:Generated_Source\PSoC5/CapSense_CSD_CSHL.c ****     while(rawIndex < numberOfSensors);
 682              		.loc 1 818 0 discriminator 1
 683 001e 042B     		cmp	r3, #4
 684 0020 F0D9     		bls	.L62
 819:Generated_Source\PSoC5/CapSense_CSD_CSHL.c ****     
 820:Generated_Source\PSoC5/CapSense_CSD_CSHL.c **** 
 821:Generated_Source\PSoC5/CapSense_CSD_CSHL.c **** }
 685              		.loc 1 821 0
 686 0022 10BC     		pop	{r4}
 687              		.cfi_restore 4
 688              		.cfi_def_cfa_offset 0
 689 0024 7047     		bx	lr
 690              	.L65:
 691 0026 00BF     		.align	2
 692              	.L64:
 693 0028 00000000 		.word	CapSense_CSD_sensorEnableMask
 694              		.cfi_endproc
 695              	.LFE10:
 696              		.size	CapSense_CSD_DisableWidget, .-CapSense_CSD_DisableWidget
 697              		.section	.text.CapSense_CSD_FindMaximum,"ax",%progbits
 698              		.align	2
 699              		.global	CapSense_CSD_FindMaximum
 700              		.thumb
 701              		.thumb_func
 702              		.type	CapSense_CSD_FindMaximum, %function
 703              	CapSense_CSD_FindMaximum:
 704              	.LFB11:
 822:Generated_Source\PSoC5/CapSense_CSD_CSHL.c **** #if(CapSense_CSD_TOTAL_CENTROIDS_COUNT)
 823:Generated_Source\PSoC5/CapSense_CSD_CSHL.c ****     /*******************************************************************************
 824:Generated_Source\PSoC5/CapSense_CSD_CSHL.c ****     * Function Name: CapSense_CSD_FindMaximum
 825:Generated_Source\PSoC5/CapSense_CSD_CSHL.c ****     ********************************************************************************
 826:Generated_Source\PSoC5/CapSense_CSD_CSHL.c ****     *
ARM GAS  C:\Users\sinow\AppData\Local\Temp\ccPiF27t.s 			page 28


 827:Generated_Source\PSoC5/CapSense_CSD_CSHL.c ****     * Summary:
 828:Generated_Source\PSoC5/CapSense_CSD_CSHL.c ****     *  Finds index of maximum element within defined centroid. Checks 
 829:Generated_Source\PSoC5/CapSense_CSD_CSHL.c ****     *  CapSense_CSD_SensorSignal[] within defined cenrtoid and 
 830:Generated_Source\PSoC5/CapSense_CSD_CSHL.c ****     *  returns index of maximum element. The values below finger threshold are 
 831:Generated_Source\PSoC5/CapSense_CSD_CSHL.c ****     *  ignored.
 832:Generated_Source\PSoC5/CapSense_CSD_CSHL.c ****     *  The centrod defines by offset of first element and number of elements - count.
 833:Generated_Source\PSoC5/CapSense_CSD_CSHL.c ****     *  The diplexed centroid requires at least consecutive two elements above
 834:Generated_Source\PSoC5/CapSense_CSD_CSHL.c ****     *  FingerThreshold to find index of maximum element.
 835:Generated_Source\PSoC5/CapSense_CSD_CSHL.c ****     * 
 836:Generated_Source\PSoC5/CapSense_CSD_CSHL.c ****     * Parameters:
 837:Generated_Source\PSoC5/CapSense_CSD_CSHL.c ****     *  offset:  Start index of cetroid in CapSense_CSD_sensorSignal[] array.
 838:Generated_Source\PSoC5/CapSense_CSD_CSHL.c ****     *  count:   number of elements within centroid.
 839:Generated_Source\PSoC5/CapSense_CSD_CSHL.c ****     *  fingerThreshold:  Finger threshould.
 840:Generated_Source\PSoC5/CapSense_CSD_CSHL.c ****     *  diplex:   pointer to diplex table.
 841:Generated_Source\PSoC5/CapSense_CSD_CSHL.c ****     * 
 842:Generated_Source\PSoC5/CapSense_CSD_CSHL.c ****     * Return:
 843:Generated_Source\PSoC5/CapSense_CSD_CSHL.c ****     *  Returns index of maximum element within defined centroid.
 844:Generated_Source\PSoC5/CapSense_CSD_CSHL.c ****     *  If index of maximum element doesn't find the 0xFF returns.
 845:Generated_Source\PSoC5/CapSense_CSD_CSHL.c ****     * 
 846:Generated_Source\PSoC5/CapSense_CSD_CSHL.c ****     *******************************************************************************/
 847:Generated_Source\PSoC5/CapSense_CSD_CSHL.c ****     #if (CapSense_CSD_IS_DIPLEX_SLIDER)
 848:Generated_Source\PSoC5/CapSense_CSD_CSHL.c ****         uint8 CapSense_CSD_FindMaximum(uint8 offset, uint8 count, uint16 fingerThreshold, const uin
 849:Generated_Source\PSoC5/CapSense_CSD_CSHL.c **** 	                                       
 850:Generated_Source\PSoC5/CapSense_CSD_CSHL.c ****     #else 
 851:Generated_Source\PSoC5/CapSense_CSD_CSHL.c ****         uint8 CapSense_CSD_FindMaximum(uint8 offset, uint8 count, uint16 fingerThreshold)
 852:Generated_Source\PSoC5/CapSense_CSD_CSHL.c **** 	                                       
 853:Generated_Source\PSoC5/CapSense_CSD_CSHL.c ****     #endif /* (CapSense_CSD_IS_DIPLEX_SLIDER) */
 854:Generated_Source\PSoC5/CapSense_CSD_CSHL.c ****     {
 705              		.loc 1 854 0
 706              		.cfi_startproc
 707              		@ args = 0, pretend = 0, frame = 0
 708              		@ frame_needed = 0, uses_anonymous_args = 0
 709              		@ link register save eliminated.
 710              	.LVL82:
 711 0000 70B4     		push	{r4, r5, r6}
 712              		.cfi_def_cfa_offset 12
 713              		.cfi_offset 4, -12
 714              		.cfi_offset 5, -8
 715              		.cfi_offset 6, -4
 716              	.LVL83:
 855:Generated_Source\PSoC5/CapSense_CSD_CSHL.c ****         uint8 i;
 856:Generated_Source\PSoC5/CapSense_CSD_CSHL.c ****         #if (CapSense_CSD_IS_DIPLEX_SLIDER)        
 857:Generated_Source\PSoC5/CapSense_CSD_CSHL.c ****             uint8 curPos = 0u;
 858:Generated_Source\PSoC5/CapSense_CSD_CSHL.c ****             /* No centroid at the Start */
 859:Generated_Source\PSoC5/CapSense_CSD_CSHL.c ****             uint8 curCntrdSize = 0u;
 860:Generated_Source\PSoC5/CapSense_CSD_CSHL.c ****             uint8 curCtrdStartPos = 0xFFu;
 861:Generated_Source\PSoC5/CapSense_CSD_CSHL.c ****             /* The biggset centroid is zero */
 862:Generated_Source\PSoC5/CapSense_CSD_CSHL.c ****             uint8 biggestCtrdSize = 0u;
 863:Generated_Source\PSoC5/CapSense_CSD_CSHL.c ****             uint8 biggestCtrdStartPos = 0u;
 864:Generated_Source\PSoC5/CapSense_CSD_CSHL.c ****         #endif /* (CapSense_CSD_IS_DIPLEX_SLIDER) */
 865:Generated_Source\PSoC5/CapSense_CSD_CSHL.c ****         uint8 maximum = 0xFFu;
 866:Generated_Source\PSoC5/CapSense_CSD_CSHL.c ****         uint16 temp = 0u;
 867:Generated_Source\PSoC5/CapSense_CSD_CSHL.c ****         uint16 *startOfSlider = &CapSense_CSD_sensorSignal[offset]; 
 717              		.loc 1 867 0
 718 0002 0A4D     		ldr	r5, .L72
 719 0004 05EB4005 		add	r5, r5, r0, lsl #1
 720              	.LVL84:
ARM GAS  C:\Users\sinow\AppData\Local\Temp\ccPiF27t.s 			page 29


 866:Generated_Source\PSoC5/CapSense_CSD_CSHL.c ****         uint16 *startOfSlider = &CapSense_CSD_sensorSignal[offset]; 
 721              		.loc 1 866 0
 722 0008 0026     		movs	r6, #0
 865:Generated_Source\PSoC5/CapSense_CSD_CSHL.c ****         uint16 temp = 0u;
 723              		.loc 1 865 0
 724 000a FF20     		movs	r0, #255
 725              	.LVL85:
 868:Generated_Source\PSoC5/CapSense_CSD_CSHL.c **** 
 869:Generated_Source\PSoC5/CapSense_CSD_CSHL.c ****         #if (CapSense_CSD_IS_DIPLEX_SLIDER)        
 870:Generated_Source\PSoC5/CapSense_CSD_CSHL.c ****             if(diplex != 0u)
 871:Generated_Source\PSoC5/CapSense_CSD_CSHL.c ****             {
 872:Generated_Source\PSoC5/CapSense_CSD_CSHL.c ****                 /* Initialize */
 873:Generated_Source\PSoC5/CapSense_CSD_CSHL.c ****                 i = 0u;
 874:Generated_Source\PSoC5/CapSense_CSD_CSHL.c ****                 
 875:Generated_Source\PSoC5/CapSense_CSD_CSHL.c ****                 /* Make slider x2 as Diplexed */
 876:Generated_Source\PSoC5/CapSense_CSD_CSHL.c ****                 count <<= 1u;
 877:Generated_Source\PSoC5/CapSense_CSD_CSHL.c ****                 while(1u)
 878:Generated_Source\PSoC5/CapSense_CSD_CSHL.c ****                 { 
 879:Generated_Source\PSoC5/CapSense_CSD_CSHL.c ****                     if (startOfSlider[curPos] > 0u)    /* Looking for centroids */
 880:Generated_Source\PSoC5/CapSense_CSD_CSHL.c ****                     {
 881:Generated_Source\PSoC5/CapSense_CSD_CSHL.c ****                         if (curCtrdStartPos == 0xFFu)
 882:Generated_Source\PSoC5/CapSense_CSD_CSHL.c ****                         {
 883:Generated_Source\PSoC5/CapSense_CSD_CSHL.c ****                             /* Start of centroid */
 884:Generated_Source\PSoC5/CapSense_CSD_CSHL.c ****                             curCtrdStartPos = i;
 885:Generated_Source\PSoC5/CapSense_CSD_CSHL.c ****                             curCntrdSize++;
 886:Generated_Source\PSoC5/CapSense_CSD_CSHL.c ****                         }
 887:Generated_Source\PSoC5/CapSense_CSD_CSHL.c ****                         else
 888:Generated_Source\PSoC5/CapSense_CSD_CSHL.c ****                         {
 889:Generated_Source\PSoC5/CapSense_CSD_CSHL.c ****                             curCntrdSize++;
 890:Generated_Source\PSoC5/CapSense_CSD_CSHL.c ****                         }
 891:Generated_Source\PSoC5/CapSense_CSD_CSHL.c ****                     }
 892:Generated_Source\PSoC5/CapSense_CSD_CSHL.c ****                     else   /* Select the bigest and indicate zero start */
 893:Generated_Source\PSoC5/CapSense_CSD_CSHL.c ****                     {          
 894:Generated_Source\PSoC5/CapSense_CSD_CSHL.c ****                         if(curCntrdSize > 0u)
 895:Generated_Source\PSoC5/CapSense_CSD_CSHL.c ****                         {
 896:Generated_Source\PSoC5/CapSense_CSD_CSHL.c ****                             /* We are in the end of current */
 897:Generated_Source\PSoC5/CapSense_CSD_CSHL.c ****                             if(curCntrdSize > biggestCtrdSize)
 898:Generated_Source\PSoC5/CapSense_CSD_CSHL.c ****                             {
 899:Generated_Source\PSoC5/CapSense_CSD_CSHL.c ****                                 biggestCtrdSize = curCntrdSize;
 900:Generated_Source\PSoC5/CapSense_CSD_CSHL.c ****                                 biggestCtrdStartPos = curCtrdStartPos;
 901:Generated_Source\PSoC5/CapSense_CSD_CSHL.c ****                             }
 902:Generated_Source\PSoC5/CapSense_CSD_CSHL.c ****                             
 903:Generated_Source\PSoC5/CapSense_CSD_CSHL.c ****                             curCntrdSize = 0u;
 904:Generated_Source\PSoC5/CapSense_CSD_CSHL.c ****                             curCtrdStartPos = 0xFFu;
 905:Generated_Source\PSoC5/CapSense_CSD_CSHL.c ****                         }
 906:Generated_Source\PSoC5/CapSense_CSD_CSHL.c ****                     }
 907:Generated_Source\PSoC5/CapSense_CSD_CSHL.c ****                     
 908:Generated_Source\PSoC5/CapSense_CSD_CSHL.c ****                     i++; 
 909:Generated_Source\PSoC5/CapSense_CSD_CSHL.c ****                     curPos = diplex[i];
 910:Generated_Source\PSoC5/CapSense_CSD_CSHL.c ****                     if(i == count)
 911:Generated_Source\PSoC5/CapSense_CSD_CSHL.c ****                     {
 912:Generated_Source\PSoC5/CapSense_CSD_CSHL.c ****                         break;
 913:Generated_Source\PSoC5/CapSense_CSD_CSHL.c ****                     }            
 914:Generated_Source\PSoC5/CapSense_CSD_CSHL.c ****                 }
 915:Generated_Source\PSoC5/CapSense_CSD_CSHL.c ****                     
 916:Generated_Source\PSoC5/CapSense_CSD_CSHL.c ****                     /* Find the biggest centroid if two are the same size, last one wins
 917:Generated_Source\PSoC5/CapSense_CSD_CSHL.c ****                        We are in the end of current */
ARM GAS  C:\Users\sinow\AppData\Local\Temp\ccPiF27t.s 			page 30


 918:Generated_Source\PSoC5/CapSense_CSD_CSHL.c ****                 if (curCntrdSize >= biggestCtrdSize) 
 919:Generated_Source\PSoC5/CapSense_CSD_CSHL.c ****                 {
 920:Generated_Source\PSoC5/CapSense_CSD_CSHL.c ****                     biggestCtrdSize = curCntrdSize;
 921:Generated_Source\PSoC5/CapSense_CSD_CSHL.c ****                     biggestCtrdStartPos = curCtrdStartPos;
 922:Generated_Source\PSoC5/CapSense_CSD_CSHL.c ****                 }
 923:Generated_Source\PSoC5/CapSense_CSD_CSHL.c ****             }
 924:Generated_Source\PSoC5/CapSense_CSD_CSHL.c ****             else
 925:Generated_Source\PSoC5/CapSense_CSD_CSHL.c ****             {
 926:Generated_Source\PSoC5/CapSense_CSD_CSHL.c ****                 /* Without diplexing */ 
 927:Generated_Source\PSoC5/CapSense_CSD_CSHL.c ****                 biggestCtrdSize = count;
 928:Generated_Source\PSoC5/CapSense_CSD_CSHL.c ****             }
 929:Generated_Source\PSoC5/CapSense_CSD_CSHL.c ****                         
 930:Generated_Source\PSoC5/CapSense_CSD_CSHL.c **** 
 931:Generated_Source\PSoC5/CapSense_CSD_CSHL.c ****             /* Check centroid size */
 932:Generated_Source\PSoC5/CapSense_CSD_CSHL.c ****             #if (CapSense_CSD_IS_NON_DIPLEX_SLIDER)
 933:Generated_Source\PSoC5/CapSense_CSD_CSHL.c ****                 if((biggestCtrdSize >= 2u) || ((biggestCtrdSize == 1u) && (diplex == 0u)))
 934:Generated_Source\PSoC5/CapSense_CSD_CSHL.c ****             #else                    
 935:Generated_Source\PSoC5/CapSense_CSD_CSHL.c ****                 if(biggestCtrdSize >= 2u)
 936:Generated_Source\PSoC5/CapSense_CSD_CSHL.c ****             #endif /* (CapSense_CSD_IS_NON_DIPLEX_SLIDER) */
 937:Generated_Source\PSoC5/CapSense_CSD_CSHL.c ****                 {
 938:Generated_Source\PSoC5/CapSense_CSD_CSHL.c ****                     for (i = biggestCtrdStartPos; i < (biggestCtrdStartPos + biggestCtrdSize); i++)
 939:Generated_Source\PSoC5/CapSense_CSD_CSHL.c ****                     {
 940:Generated_Source\PSoC5/CapSense_CSD_CSHL.c ****                         #if (CapSense_CSD_IS_DIPLEX_SLIDER && CapSense_CSD_IS_NON_DIPLEX_SLIDER)
 941:Generated_Source\PSoC5/CapSense_CSD_CSHL.c ****                             if (diplex == 0u)
 942:Generated_Source\PSoC5/CapSense_CSD_CSHL.c ****                             {
 943:Generated_Source\PSoC5/CapSense_CSD_CSHL.c ****                                 curPos = i;
 944:Generated_Source\PSoC5/CapSense_CSD_CSHL.c ****                             }
 945:Generated_Source\PSoC5/CapSense_CSD_CSHL.c ****                             else
 946:Generated_Source\PSoC5/CapSense_CSD_CSHL.c ****                             {
 947:Generated_Source\PSoC5/CapSense_CSD_CSHL.c ****                                 curPos = diplex[i];
 948:Generated_Source\PSoC5/CapSense_CSD_CSHL.c ****                             }                    
 949:Generated_Source\PSoC5/CapSense_CSD_CSHL.c ****                         #elif (CapSense_CSD_IS_DIPLEX_SLIDER)                    
 950:Generated_Source\PSoC5/CapSense_CSD_CSHL.c ****                             curPos = diplex[i];                    
 951:Generated_Source\PSoC5/CapSense_CSD_CSHL.c ****                         #endif /* (CapSense_CSD_IS_DIPLEX_SLIDER && CapSense_CSD_IS_NON_DIPLEX_SLID
 952:Generated_Source\PSoC5/CapSense_CSD_CSHL.c ****                         /* Looking for the grater element within centroid */
 953:Generated_Source\PSoC5/CapSense_CSD_CSHL.c ****                         if(startOfSlider[curPos] > fingerThreshold)
 954:Generated_Source\PSoC5/CapSense_CSD_CSHL.c ****                         {
 955:Generated_Source\PSoC5/CapSense_CSD_CSHL.c ****                             if(startOfSlider[curPos] > temp)
 956:Generated_Source\PSoC5/CapSense_CSD_CSHL.c ****                             {
 957:Generated_Source\PSoC5/CapSense_CSD_CSHL.c ****                                 maximum = i;
 958:Generated_Source\PSoC5/CapSense_CSD_CSHL.c ****                                 temp = startOfSlider[curPos];
 959:Generated_Source\PSoC5/CapSense_CSD_CSHL.c ****                             }
 960:Generated_Source\PSoC5/CapSense_CSD_CSHL.c ****                         }
 961:Generated_Source\PSoC5/CapSense_CSD_CSHL.c ****                     }
 962:Generated_Source\PSoC5/CapSense_CSD_CSHL.c ****                 } 
 963:Generated_Source\PSoC5/CapSense_CSD_CSHL.c ****         #else
 964:Generated_Source\PSoC5/CapSense_CSD_CSHL.c ****             for (i = 0u; i < count; i++)
 726              		.loc 1 964 0
 727 000c 3346     		mov	r3, r6
 728 000e 09E0     		b	.L67
 729              	.LVL86:
 730              	.L69:
 965:Generated_Source\PSoC5/CapSense_CSD_CSHL.c ****             {                      
 966:Generated_Source\PSoC5/CapSense_CSD_CSHL.c ****                 /* Looking for the grater element within centroid */
 967:Generated_Source\PSoC5/CapSense_CSD_CSHL.c ****                 if(startOfSlider[i] > fingerThreshold)
 731              		.loc 1 967 0
 732 0010 35F81340 		ldrh	r4, [r5, r3, lsl #1]
ARM GAS  C:\Users\sinow\AppData\Local\Temp\ccPiF27t.s 			page 31


 733 0014 9442     		cmp	r4, r2
 734 0016 03D9     		bls	.L68
 968:Generated_Source\PSoC5/CapSense_CSD_CSHL.c ****                 {
 969:Generated_Source\PSoC5/CapSense_CSD_CSHL.c ****                     if(startOfSlider[i] > temp)
 735              		.loc 1 969 0
 736 0018 A642     		cmp	r6, r4
 737 001a 01D2     		bcs	.L68
 970:Generated_Source\PSoC5/CapSense_CSD_CSHL.c ****                     {
 971:Generated_Source\PSoC5/CapSense_CSD_CSHL.c ****                         maximum = i;
 972:Generated_Source\PSoC5/CapSense_CSD_CSHL.c ****                         temp = startOfSlider[i];
 738              		.loc 1 972 0
 739 001c 2646     		mov	r6, r4
 740              	.LVL87:
 971:Generated_Source\PSoC5/CapSense_CSD_CSHL.c ****                         temp = startOfSlider[i];
 741              		.loc 1 971 0
 742 001e 1846     		mov	r0, r3
 743              	.LVL88:
 744              	.L68:
 964:Generated_Source\PSoC5/CapSense_CSD_CSHL.c ****             {                      
 745              		.loc 1 964 0 discriminator 2
 746 0020 0133     		adds	r3, r3, #1
 747              	.LVL89:
 748 0022 DBB2     		uxtb	r3, r3
 749              	.LVL90:
 750              	.L67:
 964:Generated_Source\PSoC5/CapSense_CSD_CSHL.c ****             {                      
 751              		.loc 1 964 0 is_stmt 0 discriminator 1
 752 0024 8B42     		cmp	r3, r1
 753 0026 F3D3     		bcc	.L69
 973:Generated_Source\PSoC5/CapSense_CSD_CSHL.c ****                     }
 974:Generated_Source\PSoC5/CapSense_CSD_CSHL.c ****                 }
 975:Generated_Source\PSoC5/CapSense_CSD_CSHL.c ****             }    
 976:Generated_Source\PSoC5/CapSense_CSD_CSHL.c ****         #endif /* (CapSense_CSD_IS_DIPLEX_SLIDER) */
 977:Generated_Source\PSoC5/CapSense_CSD_CSHL.c ****         return (maximum);
 978:Generated_Source\PSoC5/CapSense_CSD_CSHL.c ****     }
 754              		.loc 1 978 0 is_stmt 1
 755 0028 70BC     		pop	{r4, r5, r6}
 756              		.cfi_restore 6
 757              		.cfi_restore 5
 758              		.cfi_restore 4
 759              		.cfi_def_cfa_offset 0
 760              	.LVL91:
 761 002a 7047     		bx	lr
 762              	.L73:
 763              		.align	2
 764              	.L72:
 765 002c 00000000 		.word	CapSense_CSD_sensorSignal
 766              		.cfi_endproc
 767              	.LFE11:
 768              		.size	CapSense_CSD_FindMaximum, .-CapSense_CSD_FindMaximum
 769              		.section	.text.CapSense_CSD_CalcCentroid,"ax",%progbits
 770              		.align	2
 771              		.global	CapSense_CSD_CalcCentroid
 772              		.thumb
 773              		.thumb_func
 774              		.type	CapSense_CSD_CalcCentroid, %function
 775              	CapSense_CSD_CalcCentroid:
ARM GAS  C:\Users\sinow\AppData\Local\Temp\ccPiF27t.s 			page 32


 776              	.LFB12:
 979:Generated_Source\PSoC5/CapSense_CSD_CSHL.c ****     
 980:Generated_Source\PSoC5/CapSense_CSD_CSHL.c ****     
 981:Generated_Source\PSoC5/CapSense_CSD_CSHL.c ****     /*******************************************************************************
 982:Generated_Source\PSoC5/CapSense_CSD_CSHL.c ****     * Function Name: CapSense_CSD_CalcCentroid
 983:Generated_Source\PSoC5/CapSense_CSD_CSHL.c ****     ********************************************************************************
 984:Generated_Source\PSoC5/CapSense_CSD_CSHL.c ****     *
 985:Generated_Source\PSoC5/CapSense_CSD_CSHL.c ****     * Summary:
 986:Generated_Source\PSoC5/CapSense_CSD_CSHL.c ****     *  Returns position value calculated accoring index of maximum element and API
 987:Generated_Source\PSoC5/CapSense_CSD_CSHL.c ****     *  resolution.
 988:Generated_Source\PSoC5/CapSense_CSD_CSHL.c ****     *
 989:Generated_Source\PSoC5/CapSense_CSD_CSHL.c ****     * Parameters:
 990:Generated_Source\PSoC5/CapSense_CSD_CSHL.c ****     *  type:  widget type.
 991:Generated_Source\PSoC5/CapSense_CSD_CSHL.c ****     *  diplex:  pointer to diplex table.
 992:Generated_Source\PSoC5/CapSense_CSD_CSHL.c ****     *  maximum:  Index of maximum element within centroid.
 993:Generated_Source\PSoC5/CapSense_CSD_CSHL.c ****     *  offset:   Start index of cetroid in CapSense_CSD_SensorSignal[] array.
 994:Generated_Source\PSoC5/CapSense_CSD_CSHL.c ****     *  count:    Number of elements within centroid.
 995:Generated_Source\PSoC5/CapSense_CSD_CSHL.c ****     *  resolution:  multiplicator calculated according to centroid type and
 996:Generated_Source\PSoC5/CapSense_CSD_CSHL.c ****     *  API resolution.
 997:Generated_Source\PSoC5/CapSense_CSD_CSHL.c ****     *  noiseThreshold:  Noise threshould.
 998:Generated_Source\PSoC5/CapSense_CSD_CSHL.c ****     * 
 999:Generated_Source\PSoC5/CapSense_CSD_CSHL.c ****     * Return:
1000:Generated_Source\PSoC5/CapSense_CSD_CSHL.c ****     *  Returns position value of the slider.
1001:Generated_Source\PSoC5/CapSense_CSD_CSHL.c ****     * 
1002:Generated_Source\PSoC5/CapSense_CSD_CSHL.c ****     *
1003:Generated_Source\PSoC5/CapSense_CSD_CSHL.c ****     * Reentrant:
1004:Generated_Source\PSoC5/CapSense_CSD_CSHL.c ****     *  No.
1005:Generated_Source\PSoC5/CapSense_CSD_CSHL.c ****     *
1006:Generated_Source\PSoC5/CapSense_CSD_CSHL.c ****     *******************************************************************************/
1007:Generated_Source\PSoC5/CapSense_CSD_CSHL.c ****     uint8 CapSense_CSD_CalcCentroid(uint8 maximum, uint8 offset, 
1008:Generated_Source\PSoC5/CapSense_CSD_CSHL.c ****                                         uint8 count, uint16 resolution, uint16 noiseThreshold)
1009:Generated_Source\PSoC5/CapSense_CSD_CSHL.c **** 	                                    
1010:Generated_Source\PSoC5/CapSense_CSD_CSHL.c ****     {
 777              		.loc 1 1010 0
 778              		.cfi_startproc
 779              		@ args = 4, pretend = 0, frame = 0
 780              		@ frame_needed = 0, uses_anonymous_args = 0
 781              	.LVL92:
 782 0000 F0B5     		push	{r4, r5, r6, r7, lr}
 783              		.cfi_def_cfa_offset 20
 784              		.cfi_offset 4, -20
 785              		.cfi_offset 5, -16
 786              		.cfi_offset 6, -12
 787              		.cfi_offset 7, -8
 788              		.cfi_offset 14, -4
 789 0002 BDF81450 		ldrh	r5, [sp, #20]
 790              	.LVL93:
1011:Generated_Source\PSoC5/CapSense_CSD_CSHL.c ****         #if ((CapSense_CSD_TOTAL_LINEAR_SLIDERS_COUNT > 0u) || (CapSense_CSD_TOTAL_TOUCH_PADS_COUNT
1012:Generated_Source\PSoC5/CapSense_CSD_CSHL.c ****             uint8 posPrev = 0u;
1013:Generated_Source\PSoC5/CapSense_CSD_CSHL.c ****             uint8 posNext = 0u;
1014:Generated_Source\PSoC5/CapSense_CSD_CSHL.c ****         #endif /* ((CapSense_CSD_TOTAL_LINEAR_SLIDERS_COUNT>0u) || (CapSense_CSD_TOTAL_TOUCH_PADS_C
1015:Generated_Source\PSoC5/CapSense_CSD_CSHL.c ****                
1016:Generated_Source\PSoC5/CapSense_CSD_CSHL.c ****         #if (CapSense_CSD_IS_DIPLEX_SLIDER)                
1017:Generated_Source\PSoC5/CapSense_CSD_CSHL.c ****             uint8 pos;
1018:Generated_Source\PSoC5/CapSense_CSD_CSHL.c ****         #endif /* (CapSense_CSD_IS_DIPLEX_SLIDER) */
1019:Generated_Source\PSoC5/CapSense_CSD_CSHL.c ****         
1020:Generated_Source\PSoC5/CapSense_CSD_CSHL.c ****         /* Helps while centroid calulation */
ARM GAS  C:\Users\sinow\AppData\Local\Temp\ccPiF27t.s 			page 33


1021:Generated_Source\PSoC5/CapSense_CSD_CSHL.c ****         static uint16 CapSense_CSD_centroid[3u];
1022:Generated_Source\PSoC5/CapSense_CSD_CSHL.c **** 
1023:Generated_Source\PSoC5/CapSense_CSD_CSHL.c ****         uint8 position;
1024:Generated_Source\PSoC5/CapSense_CSD_CSHL.c ****         uint32 numerator;
1025:Generated_Source\PSoC5/CapSense_CSD_CSHL.c ****         int32 denominator;
1026:Generated_Source\PSoC5/CapSense_CSD_CSHL.c ****         uint16 *startOfSlider = &CapSense_CSD_sensorSignal[offset];
 791              		.loc 1 1026 0
 792 0006 2A4C     		ldr	r4, .L85
 793 0008 04EB4101 		add	r1, r4, r1, lsl #1
 794              	.LVL94:
1027:Generated_Source\PSoC5/CapSense_CSD_CSHL.c ****                     
1028:Generated_Source\PSoC5/CapSense_CSD_CSHL.c ****         #if (CapSense_CSD_ADD_SLIDER_TYPE)
1029:Generated_Source\PSoC5/CapSense_CSD_CSHL.c ****             if(type == CapSense_CSD_TYPE_RADIAL_SLIDER)
1030:Generated_Source\PSoC5/CapSense_CSD_CSHL.c ****             {
1031:Generated_Source\PSoC5/CapSense_CSD_CSHL.c ****         #endif /* (CapSense_CSD_ADD_SLIDER_TYPE) */
1032:Generated_Source\PSoC5/CapSense_CSD_CSHL.c **** 
1033:Generated_Source\PSoC5/CapSense_CSD_CSHL.c ****             #if (CapSense_CSD_TOTAL_RADIAL_SLIDERS_COUNT > 0u)                
1034:Generated_Source\PSoC5/CapSense_CSD_CSHL.c ****                 /* Copy Signal for found centriod */
1035:Generated_Source\PSoC5/CapSense_CSD_CSHL.c ****                 CapSense_CSD_centroid[CapSense_CSD_POS] = startOfSlider[maximum];
1036:Generated_Source\PSoC5/CapSense_CSD_CSHL.c ****                  
1037:Generated_Source\PSoC5/CapSense_CSD_CSHL.c ****                 /* Check borders for ROTARY Slider */
1038:Generated_Source\PSoC5/CapSense_CSD_CSHL.c ****                 if (maximum == 0u)                   /* Start of centroid */
1039:Generated_Source\PSoC5/CapSense_CSD_CSHL.c ****                 { 
1040:Generated_Source\PSoC5/CapSense_CSD_CSHL.c ****                     CapSense_CSD_centroid[CapSense_CSD_POS_PREV] = startOfSlider[count - 1u];
1041:Generated_Source\PSoC5/CapSense_CSD_CSHL.c ****                     CapSense_CSD_centroid[CapSense_CSD_POS_NEXT] = startOfSlider[1u];
1042:Generated_Source\PSoC5/CapSense_CSD_CSHL.c ****                 }
1043:Generated_Source\PSoC5/CapSense_CSD_CSHL.c ****                 else if (maximum == (count - 1u))    /* End of centroid */
1044:Generated_Source\PSoC5/CapSense_CSD_CSHL.c ****                 {
1045:Generated_Source\PSoC5/CapSense_CSD_CSHL.c ****                     CapSense_CSD_centroid[CapSense_CSD_POS_PREV] = startOfSlider[maximum - 1u];
1046:Generated_Source\PSoC5/CapSense_CSD_CSHL.c ****                     CapSense_CSD_centroid[CapSense_CSD_POS_NEXT] = startOfSlider[0u];
1047:Generated_Source\PSoC5/CapSense_CSD_CSHL.c ****                 }
1048:Generated_Source\PSoC5/CapSense_CSD_CSHL.c ****                 else                                /* Not first Not last */
1049:Generated_Source\PSoC5/CapSense_CSD_CSHL.c ****                 {
1050:Generated_Source\PSoC5/CapSense_CSD_CSHL.c ****                     CapSense_CSD_centroid[CapSense_CSD_POS_PREV] = startOfSlider[maximum - 1u];
1051:Generated_Source\PSoC5/CapSense_CSD_CSHL.c ****                     CapSense_CSD_centroid[CapSense_CSD_POS_NEXT] = startOfSlider[maximum + 1u];
1052:Generated_Source\PSoC5/CapSense_CSD_CSHL.c ****                 }
1053:Generated_Source\PSoC5/CapSense_CSD_CSHL.c ****             #endif /* (CapSense_CSD_TOTAL_RADIAL_SLIDERS_COUNT > 0u) */
1054:Generated_Source\PSoC5/CapSense_CSD_CSHL.c **** 
1055:Generated_Source\PSoC5/CapSense_CSD_CSHL.c ****         #if (CapSense_CSD_ADD_SLIDER_TYPE)
1056:Generated_Source\PSoC5/CapSense_CSD_CSHL.c ****             }
1057:Generated_Source\PSoC5/CapSense_CSD_CSHL.c ****             else
1058:Generated_Source\PSoC5/CapSense_CSD_CSHL.c ****             {
1059:Generated_Source\PSoC5/CapSense_CSD_CSHL.c ****         #endif /* (CapSense_CSD_ADD_SLIDER_TYPE) */
1060:Generated_Source\PSoC5/CapSense_CSD_CSHL.c **** 
1061:Generated_Source\PSoC5/CapSense_CSD_CSHL.c ****             #if ((CapSense_CSD_TOTAL_LINEAR_SLIDERS_COUNT > 0u) || (CapSense_CSD_TOTAL_TOUCH_PADS_C
1062:Generated_Source\PSoC5/CapSense_CSD_CSHL.c ****                 #if (CapSense_CSD_IS_DIPLEX_SLIDER && CapSense_CSD_IS_NON_DIPLEX_SLIDER)           
1063:Generated_Source\PSoC5/CapSense_CSD_CSHL.c ****                     /* Calculate next and previous near to maximum */
1064:Generated_Source\PSoC5/CapSense_CSD_CSHL.c ****                     if(diplex == 0u)
1065:Generated_Source\PSoC5/CapSense_CSD_CSHL.c ****                     {
1066:Generated_Source\PSoC5/CapSense_CSD_CSHL.c ****                         pos     = maximum;
1067:Generated_Source\PSoC5/CapSense_CSD_CSHL.c ****                         posPrev = maximum - 1u;
1068:Generated_Source\PSoC5/CapSense_CSD_CSHL.c ****                         posNext = maximum + 1u; 
1069:Generated_Source\PSoC5/CapSense_CSD_CSHL.c ****                     }
1070:Generated_Source\PSoC5/CapSense_CSD_CSHL.c ****                     else
1071:Generated_Source\PSoC5/CapSense_CSD_CSHL.c ****                     {
1072:Generated_Source\PSoC5/CapSense_CSD_CSHL.c ****                         pos     = diplex[maximum];
1073:Generated_Source\PSoC5/CapSense_CSD_CSHL.c ****                         posPrev = diplex[maximum - 1u];
ARM GAS  C:\Users\sinow\AppData\Local\Temp\ccPiF27t.s 			page 34


1074:Generated_Source\PSoC5/CapSense_CSD_CSHL.c ****                         posNext = diplex[maximum + 1u];
1075:Generated_Source\PSoC5/CapSense_CSD_CSHL.c ****                         count <<= 1u;
1076:Generated_Source\PSoC5/CapSense_CSD_CSHL.c ****                     }                    
1077:Generated_Source\PSoC5/CapSense_CSD_CSHL.c ****                 #elif (CapSense_CSD_IS_DIPLEX_SLIDER)
1078:Generated_Source\PSoC5/CapSense_CSD_CSHL.c ****                     /* Calculate next and previous near to maximum */
1079:Generated_Source\PSoC5/CapSense_CSD_CSHL.c ****                     pos     = diplex[maximum];
1080:Generated_Source\PSoC5/CapSense_CSD_CSHL.c ****                     posPrev = diplex[maximum - 1u];
1081:Generated_Source\PSoC5/CapSense_CSD_CSHL.c ****                     posNext = diplex[maximum + 1u];
1082:Generated_Source\PSoC5/CapSense_CSD_CSHL.c ****                     count <<= 1u;                    
1083:Generated_Source\PSoC5/CapSense_CSD_CSHL.c ****                 #else                    
1084:Generated_Source\PSoC5/CapSense_CSD_CSHL.c ****                     /* Calculate next and previous near to maximum */
1085:Generated_Source\PSoC5/CapSense_CSD_CSHL.c ****                     if (maximum >= 1u)
 795              		.loc 1 1085 0
 796 000c 0446     		mov	r4, r0
 797 000e 10B1     		cbz	r0, .L83
1086:Generated_Source\PSoC5/CapSense_CSD_CSHL.c ****                     {
1087:Generated_Source\PSoC5/CapSense_CSD_CSHL.c ****                         posPrev = maximum - 1u;
 798              		.loc 1 1087 0
 799 0010 461E     		subs	r6, r0, #1
 800 0012 F6B2     		uxtb	r6, r6
 801              	.LVL95:
 802 0014 00E0     		b	.L75
 803              	.LVL96:
 804              	.L83:
1012:Generated_Source\PSoC5/CapSense_CSD_CSHL.c ****             uint8 posNext = 0u;
 805              		.loc 1 1012 0
 806 0016 0026     		movs	r6, #0
 807              	.LVL97:
 808              	.L75:
1088:Generated_Source\PSoC5/CapSense_CSD_CSHL.c ****                     }
1089:Generated_Source\PSoC5/CapSense_CSD_CSHL.c ****                     posNext = maximum + 1u; 
 809              		.loc 1 1089 0
 810 0018 601C     		adds	r0, r4, #1
 811              	.LVL98:
 812 001a C0B2     		uxtb	r0, r0
 813              	.LVL99:
1090:Generated_Source\PSoC5/CapSense_CSD_CSHL.c ****                 #endif /* (CapSense_CSD_IS_DIPLEX_SLIDER && CapSense_CSD_IS_NON_DIPLEX_SLIDER) */
1091:Generated_Source\PSoC5/CapSense_CSD_CSHL.c ****                         
1092:Generated_Source\PSoC5/CapSense_CSD_CSHL.c ****                 /* Copy Signal for found centriod */
1093:Generated_Source\PSoC5/CapSense_CSD_CSHL.c ****                 #if (CapSense_CSD_IS_DIPLEX_SLIDER)
1094:Generated_Source\PSoC5/CapSense_CSD_CSHL.c ****                     CapSense_CSD_centroid[CapSense_CSD_POS] = startOfSlider[pos];
1095:Generated_Source\PSoC5/CapSense_CSD_CSHL.c ****                 #else
1096:Generated_Source\PSoC5/CapSense_CSD_CSHL.c ****                     CapSense_CSD_centroid[CapSense_CSD_POS] = startOfSlider[maximum];
 814              		.loc 1 1096 0
 815 001c 31F814E0 		ldrh	lr, [r1, r4, lsl #1]
 816 0020 244F     		ldr	r7, .L85+4
 817 0022 A7F806E0 		strh	lr, [r7, #6]	@ movhi
1097:Generated_Source\PSoC5/CapSense_CSD_CSHL.c ****                 #endif /* (CapSense_CSD_IS_DIPLEX_SLIDER) */
1098:Generated_Source\PSoC5/CapSense_CSD_CSHL.c ****                     
1099:Generated_Source\PSoC5/CapSense_CSD_CSHL.c ****                 /* Check borders for LINEAR Slider */
1100:Generated_Source\PSoC5/CapSense_CSD_CSHL.c ****                 if (maximum == 0u)                   /* Start of centroid */
 818              		.loc 1 1100 0
 819 0026 2CB9     		cbnz	r4, .L76
1101:Generated_Source\PSoC5/CapSense_CSD_CSHL.c ****                 { 
1102:Generated_Source\PSoC5/CapSense_CSD_CSHL.c ****                     CapSense_CSD_centroid[CapSense_CSD_POS_PREV] = 0u;
 820              		.loc 1 1102 0
 821 0028 0026     		movs	r6, #0
ARM GAS  C:\Users\sinow\AppData\Local\Temp\ccPiF27t.s 			page 35


 822              	.LVL100:
 823 002a BE80     		strh	r6, [r7, #4]	@ movhi
1103:Generated_Source\PSoC5/CapSense_CSD_CSHL.c ****                     CapSense_CSD_centroid[CapSense_CSD_POS_NEXT] = startOfSlider[posNext];
 824              		.loc 1 1103 0
 825 002c 31F81010 		ldrh	r1, [r1, r0, lsl #1]
 826              	.LVL101:
 827 0030 3981     		strh	r1, [r7, #8]	@ movhi
 828 0032 10E0     		b	.L77
 829              	.LVL102:
 830              	.L76:
1104:Generated_Source\PSoC5/CapSense_CSD_CSHL.c ****                 }
1105:Generated_Source\PSoC5/CapSense_CSD_CSHL.c ****                 else if (maximum == ((count) - 1u)) /* End of centroid */
 831              		.loc 1 1105 0
 832 0034 013A     		subs	r2, r2, #1
 833              	.LVL103:
 834 0036 9442     		cmp	r4, r2
 835 0038 06D1     		bne	.L78
1106:Generated_Source\PSoC5/CapSense_CSD_CSHL.c ****                 {
1107:Generated_Source\PSoC5/CapSense_CSD_CSHL.c ****                     CapSense_CSD_centroid[CapSense_CSD_POS_PREV] = startOfSlider[posPrev];
 836              		.loc 1 1107 0
 837 003a 31F81610 		ldrh	r1, [r1, r6, lsl #1]
 838              	.LVL104:
 839 003e 1D4A     		ldr	r2, .L85+4
 840 0040 9180     		strh	r1, [r2, #4]	@ movhi
1108:Generated_Source\PSoC5/CapSense_CSD_CSHL.c ****                     CapSense_CSD_centroid[CapSense_CSD_POS_NEXT] = 0u;
 841              		.loc 1 1108 0
 842 0042 0021     		movs	r1, #0
 843 0044 1181     		strh	r1, [r2, #8]	@ movhi
 844 0046 06E0     		b	.L77
 845              	.LVL105:
 846              	.L78:
1109:Generated_Source\PSoC5/CapSense_CSD_CSHL.c ****                 }
1110:Generated_Source\PSoC5/CapSense_CSD_CSHL.c ****                 else                                /* Not first Not last */
1111:Generated_Source\PSoC5/CapSense_CSD_CSHL.c ****                 {
1112:Generated_Source\PSoC5/CapSense_CSD_CSHL.c ****                     CapSense_CSD_centroid[CapSense_CSD_POS_PREV] = startOfSlider[posPrev];
 847              		.loc 1 1112 0
 848 0048 31F81660 		ldrh	r6, [r1, r6, lsl #1]
 849              	.LVL106:
 850 004c 194A     		ldr	r2, .L85+4
 851 004e 9680     		strh	r6, [r2, #4]	@ movhi
1113:Generated_Source\PSoC5/CapSense_CSD_CSHL.c ****                     CapSense_CSD_centroid[CapSense_CSD_POS_NEXT] = startOfSlider[posNext];
 852              		.loc 1 1113 0
 853 0050 31F81010 		ldrh	r1, [r1, r0, lsl #1]
 854              	.LVL107:
 855 0054 1181     		strh	r1, [r2, #8]	@ movhi
 856              	.L77:
1114:Generated_Source\PSoC5/CapSense_CSD_CSHL.c ****                 }
1115:Generated_Source\PSoC5/CapSense_CSD_CSHL.c ****             #endif /* ((CapSense_CSD_TOTAL_LINEAR_SLIDERS_COUNT>0u)||(CapSense_CSD_TOTAL_TOUCH_PADS
1116:Generated_Source\PSoC5/CapSense_CSD_CSHL.c **** 
1117:Generated_Source\PSoC5/CapSense_CSD_CSHL.c ****         #if (CapSense_CSD_ADD_SLIDER_TYPE)
1118:Generated_Source\PSoC5/CapSense_CSD_CSHL.c ****             }
1119:Generated_Source\PSoC5/CapSense_CSD_CSHL.c ****         #endif /* (CapSense_CSD_ADD_SLIDER_TYPE) */
1120:Generated_Source\PSoC5/CapSense_CSD_CSHL.c ****     
1121:Generated_Source\PSoC5/CapSense_CSD_CSHL.c ****         /* Subtract noiseThreshold */
1122:Generated_Source\PSoC5/CapSense_CSD_CSHL.c ****         if(CapSense_CSD_centroid[CapSense_CSD_POS_PREV] > noiseThreshold)
 857              		.loc 1 1122 0
 858 0056 174A     		ldr	r2, .L85+4
ARM GAS  C:\Users\sinow\AppData\Local\Temp\ccPiF27t.s 			page 36


 859 0058 9288     		ldrh	r2, [r2, #4]
 860 005a AA42     		cmp	r2, r5
 861 005c 03D9     		bls	.L79
1123:Generated_Source\PSoC5/CapSense_CSD_CSHL.c ****         {
1124:Generated_Source\PSoC5/CapSense_CSD_CSHL.c ****             CapSense_CSD_centroid[CapSense_CSD_POS_PREV] -= noiseThreshold;
 862              		.loc 1 1124 0
 863 005e 521B     		subs	r2, r2, r5
 864 0060 1449     		ldr	r1, .L85+4
 865 0062 8A80     		strh	r2, [r1, #4]	@ movhi
 866 0064 02E0     		b	.L80
 867              	.L79:
1125:Generated_Source\PSoC5/CapSense_CSD_CSHL.c ****         }
1126:Generated_Source\PSoC5/CapSense_CSD_CSHL.c ****         else
1127:Generated_Source\PSoC5/CapSense_CSD_CSHL.c ****         {
1128:Generated_Source\PSoC5/CapSense_CSD_CSHL.c ****             CapSense_CSD_centroid[CapSense_CSD_POS_PREV] = 0u;
 868              		.loc 1 1128 0
 869 0066 0021     		movs	r1, #0
 870 0068 124A     		ldr	r2, .L85+4
 871 006a 9180     		strh	r1, [r2, #4]	@ movhi
 872              	.L80:
1129:Generated_Source\PSoC5/CapSense_CSD_CSHL.c ****         }
1130:Generated_Source\PSoC5/CapSense_CSD_CSHL.c ****         
1131:Generated_Source\PSoC5/CapSense_CSD_CSHL.c ****         /* Maximum always grater than fingerThreshold, so grate than noiseThreshold */
1132:Generated_Source\PSoC5/CapSense_CSD_CSHL.c ****         CapSense_CSD_centroid[CapSense_CSD_POS] -= noiseThreshold;
 873              		.loc 1 1132 0
 874 006c 114A     		ldr	r2, .L85+4
 875 006e D188     		ldrh	r1, [r2, #6]
 876 0070 491B     		subs	r1, r1, r5
 877 0072 89B2     		uxth	r1, r1
 878 0074 D180     		strh	r1, [r2, #6]	@ movhi
1133:Generated_Source\PSoC5/CapSense_CSD_CSHL.c ****         
1134:Generated_Source\PSoC5/CapSense_CSD_CSHL.c ****         /* Subtract noiseThreshold */
1135:Generated_Source\PSoC5/CapSense_CSD_CSHL.c ****         if(CapSense_CSD_centroid[CapSense_CSD_POS_NEXT] > noiseThreshold)
 879              		.loc 1 1135 0
 880 0076 1289     		ldrh	r2, [r2, #8]
 881 0078 9542     		cmp	r5, r2
 882 007a 03D2     		bcs	.L81
1136:Generated_Source\PSoC5/CapSense_CSD_CSHL.c ****         {
1137:Generated_Source\PSoC5/CapSense_CSD_CSHL.c ****             CapSense_CSD_centroid[CapSense_CSD_POS_NEXT] -= noiseThreshold;
 883              		.loc 1 1137 0
 884 007c 551B     		subs	r5, r2, r5
 885 007e 0D4A     		ldr	r2, .L85+4
 886 0080 1581     		strh	r5, [r2, #8]	@ movhi
 887 0082 02E0     		b	.L82
 888              	.L81:
1138:Generated_Source\PSoC5/CapSense_CSD_CSHL.c ****         }
1139:Generated_Source\PSoC5/CapSense_CSD_CSHL.c ****         else
1140:Generated_Source\PSoC5/CapSense_CSD_CSHL.c ****         {
1141:Generated_Source\PSoC5/CapSense_CSD_CSHL.c ****             CapSense_CSD_centroid[CapSense_CSD_POS_NEXT] = 0u;
 889              		.loc 1 1141 0
 890 0084 0020     		movs	r0, #0
 891              	.LVL108:
 892 0086 0B4A     		ldr	r2, .L85+4
 893 0088 1081     		strh	r0, [r2, #8]	@ movhi
 894              	.L82:
1142:Generated_Source\PSoC5/CapSense_CSD_CSHL.c ****         }
1143:Generated_Source\PSoC5/CapSense_CSD_CSHL.c ****         
ARM GAS  C:\Users\sinow\AppData\Local\Temp\ccPiF27t.s 			page 37


1144:Generated_Source\PSoC5/CapSense_CSD_CSHL.c ****         
1145:Generated_Source\PSoC5/CapSense_CSD_CSHL.c ****         /* Si+1 - Si-1 */
1146:Generated_Source\PSoC5/CapSense_CSD_CSHL.c ****         numerator = (uint32) CapSense_CSD_centroid[CapSense_CSD_POS_NEXT] -
 895              		.loc 1 1146 0
 896 008a 0A4A     		ldr	r2, .L85+4
 897 008c 1089     		ldrh	r0, [r2, #8]
1147:Generated_Source\PSoC5/CapSense_CSD_CSHL.c ****                     (uint32) CapSense_CSD_centroid[CapSense_CSD_POS_PREV];
 898              		.loc 1 1147 0
 899 008e 9588     		ldrh	r5, [r2, #4]
1146:Generated_Source\PSoC5/CapSense_CSD_CSHL.c ****                     (uint32) CapSense_CSD_centroid[CapSense_CSD_POS_PREV];
 900              		.loc 1 1146 0
 901 0090 421B     		subs	r2, r0, r5
 902              	.LVL109:
1148:Generated_Source\PSoC5/CapSense_CSD_CSHL.c **** 
1149:Generated_Source\PSoC5/CapSense_CSD_CSHL.c ****         /* Si+1 + Si + Si-1 */
1150:Generated_Source\PSoC5/CapSense_CSD_CSHL.c ****         denominator = (int32) CapSense_CSD_centroid[CapSense_CSD_POS_PREV] + 
 903              		.loc 1 1150 0
 904 0092 2944     		add	r1, r1, r5
 905 0094 0844     		add	r0, r0, r1
 906              	.LVL110:
1151:Generated_Source\PSoC5/CapSense_CSD_CSHL.c ****                       (int32) CapSense_CSD_centroid[CapSense_CSD_POS] + 
1152:Generated_Source\PSoC5/CapSense_CSD_CSHL.c ****                       (int32) CapSense_CSD_centroid[CapSense_CSD_POS_NEXT];
1153:Generated_Source\PSoC5/CapSense_CSD_CSHL.c ****         
1154:Generated_Source\PSoC5/CapSense_CSD_CSHL.c ****         /* (numerator/denominator) + maximum */
1155:Generated_Source\PSoC5/CapSense_CSD_CSHL.c ****         denominator = (((int32)(uint32)((uint32)numerator << 8u)/denominator) + (int32)(uint32)((ui
 907              		.loc 1 1155 0
 908 0096 1202     		lsls	r2, r2, #8
 909              	.LVL111:
 910 0098 92FBF0F0 		sdiv	r0, r2, r0
 911              	.LVL112:
 912 009c 00EB0420 		add	r0, r0, r4, lsl #8
 913              	.LVL113:
1156:Generated_Source\PSoC5/CapSense_CSD_CSHL.c **** 
1157:Generated_Source\PSoC5/CapSense_CSD_CSHL.c ****         #if(CapSense_CSD_TOTAL_RADIAL_SLIDERS_COUNT > 0u)
1158:Generated_Source\PSoC5/CapSense_CSD_CSHL.c ****             /* Only required for RADIAL Slider */
1159:Generated_Source\PSoC5/CapSense_CSD_CSHL.c ****             if(denominator < 0)
1160:Generated_Source\PSoC5/CapSense_CSD_CSHL.c ****             {
1161:Generated_Source\PSoC5/CapSense_CSD_CSHL.c ****                 denominator += (int32)((uint16)((uint16) count << 8u));
1162:Generated_Source\PSoC5/CapSense_CSD_CSHL.c ****             }
1163:Generated_Source\PSoC5/CapSense_CSD_CSHL.c ****         #endif /* (CapSense_CSD_TOTAL_RADIAL_SLIDERS_COUNT > 0u) */
1164:Generated_Source\PSoC5/CapSense_CSD_CSHL.c **** 
1165:Generated_Source\PSoC5/CapSense_CSD_CSHL.c ****         denominator *= (int16)resolution;
 914              		.loc 1 1165 0
 915 00a0 1BB2     		sxth	r3, r3
 916 00a2 00FB03F0 		mul	r0, r0, r3
 917              	.LVL114:
1166:Generated_Source\PSoC5/CapSense_CSD_CSHL.c **** 
1167:Generated_Source\PSoC5/CapSense_CSD_CSHL.c ****         /* Round the relust and put it to uint8 */
1168:Generated_Source\PSoC5/CapSense_CSD_CSHL.c ****         position = ((uint8) HI16((uint32)denominator + CapSense_CSD_CENTROID_ROUND_VALUE));
 918              		.loc 1 1168 0
 919 00a6 00F5FE40 		add	r0, r0, #32512
 920              	.LVL115:
1169:Generated_Source\PSoC5/CapSense_CSD_CSHL.c **** 
1170:Generated_Source\PSoC5/CapSense_CSD_CSHL.c ****         return (position);
1171:Generated_Source\PSoC5/CapSense_CSD_CSHL.c ****     }    
 921              		.loc 1 1171 0
 922 00aa C0F30740 		ubfx	r0, r0, #16, #8
ARM GAS  C:\Users\sinow\AppData\Local\Temp\ccPiF27t.s 			page 38


 923              	.LVL116:
 924 00ae F0BD     		pop	{r4, r5, r6, r7, pc}
 925              	.LVL117:
 926              	.L86:
 927              		.align	2
 928              	.L85:
 929 00b0 00000000 		.word	CapSense_CSD_sensorSignal
 930 00b4 00000000 		.word	.LANCHOR0
 931              		.cfi_endproc
 932              	.LFE12:
 933              		.size	CapSense_CSD_CalcCentroid, .-CapSense_CSD_CalcCentroid
 934              		.section	.text.CapSense_CSD_IIR4Filter,"ax",%progbits
 935              		.align	2
 936              		.global	CapSense_CSD_IIR4Filter
 937              		.thumb
 938              		.thumb_func
 939              		.type	CapSense_CSD_IIR4Filter, %function
 940              	CapSense_CSD_IIR4Filter:
 941              	.LFB14:
1172:Generated_Source\PSoC5/CapSense_CSD_CSHL.c **** #endif /* (CapSense_CSD_TOTAL_CENTROIDS_COUNT) */
1173:Generated_Source\PSoC5/CapSense_CSD_CSHL.c **** 
1174:Generated_Source\PSoC5/CapSense_CSD_CSHL.c **** 
1175:Generated_Source\PSoC5/CapSense_CSD_CSHL.c **** #if(CapSense_CSD_TOTAL_LINEAR_SLIDERS_COUNT > 0u)
1176:Generated_Source\PSoC5/CapSense_CSD_CSHL.c ****     /*******************************************************************************
1177:Generated_Source\PSoC5/CapSense_CSD_CSHL.c ****     * Function Name: CapSense_CSD_GetCentroidPos
1178:Generated_Source\PSoC5/CapSense_CSD_CSHL.c ****     ********************************************************************************
1179:Generated_Source\PSoC5/CapSense_CSD_CSHL.c ****     *
1180:Generated_Source\PSoC5/CapSense_CSD_CSHL.c ****     * Summary:
1181:Generated_Source\PSoC5/CapSense_CSD_CSHL.c ****     *  Checks the CapSense_CSD_Signal[ ] array for a centroid within
1182:Generated_Source\PSoC5/CapSense_CSD_CSHL.c ****     *  slider specified range. The centroid position is calculated to the resolution
1183:Generated_Source\PSoC5/CapSense_CSD_CSHL.c ****     *  specified in the CapSense customizer. The position filters are applied to the
1184:Generated_Source\PSoC5/CapSense_CSD_CSHL.c ****     *  result if enabled.
1185:Generated_Source\PSoC5/CapSense_CSD_CSHL.c ****     *
1186:Generated_Source\PSoC5/CapSense_CSD_CSHL.c ****     * Parameters:
1187:Generated_Source\PSoC5/CapSense_CSD_CSHL.c ****     *  widget:  Widget number.
1188:Generated_Source\PSoC5/CapSense_CSD_CSHL.c ****     *  For every linear slider widget there are defines in this format:
1189:Generated_Source\PSoC5/CapSense_CSD_CSHL.c ****     *  #define CapSense_CSD_LS__"widget_name"            5
1190:Generated_Source\PSoC5/CapSense_CSD_CSHL.c ****     * 
1191:Generated_Source\PSoC5/CapSense_CSD_CSHL.c ****     * Return:
1192:Generated_Source\PSoC5/CapSense_CSD_CSHL.c ****     *  Returns position value of the linear slider.
1193:Generated_Source\PSoC5/CapSense_CSD_CSHL.c ****     *
1194:Generated_Source\PSoC5/CapSense_CSD_CSHL.c ****     * Side Effects:
1195:Generated_Source\PSoC5/CapSense_CSD_CSHL.c ****     *  If any sensor within the slider widget is active, the function returns values
1196:Generated_Source\PSoC5/CapSense_CSD_CSHL.c ****     *  from zero to the API resolution value set in the CapSense customizer. If no
1197:Generated_Source\PSoC5/CapSense_CSD_CSHL.c ****     *  sensors are active, the function returns 0xFFFF. If an error occurs during
1198:Generated_Source\PSoC5/CapSense_CSD_CSHL.c ****     *  execution of the centroid/diplexing algorithm, the function returns 0xFFFF.
1199:Generated_Source\PSoC5/CapSense_CSD_CSHL.c ****     *  There are no checks of widget type argument provided to this function.
1200:Generated_Source\PSoC5/CapSense_CSD_CSHL.c ****     *  The unproper widget type provided will cause unexpected position calculations.
1201:Generated_Source\PSoC5/CapSense_CSD_CSHL.c ****     *
1202:Generated_Source\PSoC5/CapSense_CSD_CSHL.c ****     * Note:
1203:Generated_Source\PSoC5/CapSense_CSD_CSHL.c ****     *  If noise counts on the slider segments are greater than the noise
1204:Generated_Source\PSoC5/CapSense_CSD_CSHL.c ****     *  threshold, this subroutine may generate a false centroid result. The noise
1205:Generated_Source\PSoC5/CapSense_CSD_CSHL.c ****     *  threshold should be set carefully (high enough above the noise level) so
1206:Generated_Source\PSoC5/CapSense_CSD_CSHL.c ****     *  that noise will not generate a false centroid.
1207:Generated_Source\PSoC5/CapSense_CSD_CSHL.c ****     *
1208:Generated_Source\PSoC5/CapSense_CSD_CSHL.c ****     * Reentrant:
1209:Generated_Source\PSoC5/CapSense_CSD_CSHL.c ****     *  No.
ARM GAS  C:\Users\sinow\AppData\Local\Temp\ccPiF27t.s 			page 39


1210:Generated_Source\PSoC5/CapSense_CSD_CSHL.c ****     *
1211:Generated_Source\PSoC5/CapSense_CSD_CSHL.c ****     *******************************************************************************/
1212:Generated_Source\PSoC5/CapSense_CSD_CSHL.c ****     uint16 CapSense_CSD_GetCentroidPos(uint8 widget) 
1213:Generated_Source\PSoC5/CapSense_CSD_CSHL.c ****     {
1214:Generated_Source\PSoC5/CapSense_CSD_CSHL.c ****         #if (CapSense_CSD_IS_DIPLEX_SLIDER)
1215:Generated_Source\PSoC5/CapSense_CSD_CSHL.c ****             const uint8 CYCODE *diplex;
1216:Generated_Source\PSoC5/CapSense_CSD_CSHL.c ****         #endif /* (CapSense_CSD_IS_DIPLEX_SLIDER) */
1217:Generated_Source\PSoC5/CapSense_CSD_CSHL.c ****                 
1218:Generated_Source\PSoC5/CapSense_CSD_CSHL.c ****         #if (0u != CapSense_CSD_LINEAR_SLIDERS_POS_FILTERS_MASK)
1219:Generated_Source\PSoC5/CapSense_CSD_CSHL.c ****             uint8 posIndex;
1220:Generated_Source\PSoC5/CapSense_CSD_CSHL.c ****             uint8 firstTimeIndex = CapSense_CSD_posFiltersData[widget];
1221:Generated_Source\PSoC5/CapSense_CSD_CSHL.c ****             uint8 posFiltersMask = CapSense_CSD_posFiltersMask[widget];  
1222:Generated_Source\PSoC5/CapSense_CSD_CSHL.c ****         #endif /* (0u != CapSense_CSD_LINEAR_SLIDERS_POS_FILTERS_MASK) */
1223:Generated_Source\PSoC5/CapSense_CSD_CSHL.c **** 
1224:Generated_Source\PSoC5/CapSense_CSD_CSHL.c ****         #if ((0u != (CapSense_CSD_MEDIAN_FILTER & CapSense_CSD_LINEAR_SLIDERS_POS_FILTERS_MASK)) ||
1225:Generated_Source\PSoC5/CapSense_CSD_CSHL.c ****              (0u != (CapSense_CSD_AVERAGING_FILTER & CapSense_CSD_LINEAR_SLIDERS_POS_FILTERS_MASK))
1226:Generated_Source\PSoC5/CapSense_CSD_CSHL.c ****             uint8 tempPos;
1227:Generated_Source\PSoC5/CapSense_CSD_CSHL.c ****         #endif /* ((0u != (CapSense_CSD_MEDIAN_FILTER & CapSense_CSD_LINEAR_SLIDERS_POS_FILTERS_MAS
1228:Generated_Source\PSoC5/CapSense_CSD_CSHL.c ****                *   (0u != (CapSense_CSD_AVERAGING_FILTER & CapSense_CSD_LINEAR_SLIDERS_POS_FILTERS_
1229:Generated_Source\PSoC5/CapSense_CSD_CSHL.c ****                */
1230:Generated_Source\PSoC5/CapSense_CSD_CSHL.c **** 
1231:Generated_Source\PSoC5/CapSense_CSD_CSHL.c ****         uint8 maximum;
1232:Generated_Source\PSoC5/CapSense_CSD_CSHL.c ****         uint16 position;
1233:Generated_Source\PSoC5/CapSense_CSD_CSHL.c ****         uint8 offset = CapSense_CSD_rawDataIndex[widget];
1234:Generated_Source\PSoC5/CapSense_CSD_CSHL.c ****         uint8 count = CapSense_CSD_numberOfSensors[widget];
1235:Generated_Source\PSoC5/CapSense_CSD_CSHL.c ****                         
1236:Generated_Source\PSoC5/CapSense_CSD_CSHL.c ****         #if (CapSense_CSD_IS_DIPLEX_SLIDER)
1237:Generated_Source\PSoC5/CapSense_CSD_CSHL.c ****             if(widget < CapSense_CSD_TOTAL_DIPLEXED_SLIDERS_COUNT)
1238:Generated_Source\PSoC5/CapSense_CSD_CSHL.c ****             {
1239:Generated_Source\PSoC5/CapSense_CSD_CSHL.c ****                 maximum = CapSense_CSD_diplexTable[widget];
1240:Generated_Source\PSoC5/CapSense_CSD_CSHL.c ****                 diplex = &CapSense_CSD_diplexTable[maximum];
1241:Generated_Source\PSoC5/CapSense_CSD_CSHL.c ****             }
1242:Generated_Source\PSoC5/CapSense_CSD_CSHL.c ****             else
1243:Generated_Source\PSoC5/CapSense_CSD_CSHL.c ****             {
1244:Generated_Source\PSoC5/CapSense_CSD_CSHL.c ****                 diplex = 0u;
1245:Generated_Source\PSoC5/CapSense_CSD_CSHL.c ****             }
1246:Generated_Source\PSoC5/CapSense_CSD_CSHL.c ****         #endif /* (CapSense_CSD_IS_DIPLEX_SLIDER) */
1247:Generated_Source\PSoC5/CapSense_CSD_CSHL.c **** 
1248:Generated_Source\PSoC5/CapSense_CSD_CSHL.c ****         /* Find Maximum within centroid */      
1249:Generated_Source\PSoC5/CapSense_CSD_CSHL.c ****         #if (CapSense_CSD_IS_DIPLEX_SLIDER)        
1250:Generated_Source\PSoC5/CapSense_CSD_CSHL.c ****             maximum = CapSense_CSD_FindMaximum(offset, count, CapSense_CSD_fingerThreshold[widget],
1251:Generated_Source\PSoC5/CapSense_CSD_CSHL.c ****         #else
1252:Generated_Source\PSoC5/CapSense_CSD_CSHL.c ****             maximum = CapSense_CSD_FindMaximum(offset, count, CapSense_CSD_fingerThreshold[widget])
1253:Generated_Source\PSoC5/CapSense_CSD_CSHL.c ****         #endif /* (CapSense_CSD_IS_DIPLEX_SLIDER) */
1254:Generated_Source\PSoC5/CapSense_CSD_CSHL.c **** 
1255:Generated_Source\PSoC5/CapSense_CSD_CSHL.c ****         if (maximum != 0xFFu)
1256:Generated_Source\PSoC5/CapSense_CSD_CSHL.c ****         {
1257:Generated_Source\PSoC5/CapSense_CSD_CSHL.c ****             /* Calculate centroid */
1258:Generated_Source\PSoC5/CapSense_CSD_CSHL.c ****             position = (uint16) CapSense_CSD_CalcCentroid(maximum, 
1259:Generated_Source\PSoC5/CapSense_CSD_CSHL.c ****                          offset, count, CapSense_CSD_centroidMult[widget], CapSense_CSD_noiseThresh
1260:Generated_Source\PSoC5/CapSense_CSD_CSHL.c **** 
1261:Generated_Source\PSoC5/CapSense_CSD_CSHL.c ****             #if (0u != CapSense_CSD_LINEAR_SLIDERS_POS_FILTERS_MASK)
1262:Generated_Source\PSoC5/CapSense_CSD_CSHL.c ****                 /* Check if this linear slider has enabled filters */
1263:Generated_Source\PSoC5/CapSense_CSD_CSHL.c ****                 if (0u != (posFiltersMask & CapSense_CSD_ANY_POS_FILTER))
1264:Generated_Source\PSoC5/CapSense_CSD_CSHL.c ****                 {
1265:Generated_Source\PSoC5/CapSense_CSD_CSHL.c ****                     /* Caluclate position to store filters data */
1266:Generated_Source\PSoC5/CapSense_CSD_CSHL.c ****                     posIndex  = firstTimeIndex + 1u;
ARM GAS  C:\Users\sinow\AppData\Local\Temp\ccPiF27t.s 			page 40


1267:Generated_Source\PSoC5/CapSense_CSD_CSHL.c ****                     
1268:Generated_Source\PSoC5/CapSense_CSD_CSHL.c ****                     if (0u == CapSense_CSD_posFiltersData[firstTimeIndex])
1269:Generated_Source\PSoC5/CapSense_CSD_CSHL.c ****                     {
1270:Generated_Source\PSoC5/CapSense_CSD_CSHL.c ****                         /* Init filters */
1271:Generated_Source\PSoC5/CapSense_CSD_CSHL.c ****                         CapSense_CSD_posFiltersData[posIndex] = (uint8) position;
1272:Generated_Source\PSoC5/CapSense_CSD_CSHL.c ****                         #if ((0u != (CapSense_CSD_MEDIAN_FILTER & \
1273:Generated_Source\PSoC5/CapSense_CSD_CSHL.c ****                                      CapSense_CSD_LINEAR_SLIDERS_POS_FILTERS_MASK)) || \
1274:Generated_Source\PSoC5/CapSense_CSD_CSHL.c ****                              (0u != (CapSense_CSD_AVERAGING_FILTER & \
1275:Generated_Source\PSoC5/CapSense_CSD_CSHL.c ****                                      CapSense_CSD_LINEAR_SLIDERS_POS_FILTERS_MASK)))
1276:Generated_Source\PSoC5/CapSense_CSD_CSHL.c **** 
1277:Generated_Source\PSoC5/CapSense_CSD_CSHL.c ****                             if ( (0u != (posFiltersMask & CapSense_CSD_MEDIAN_FILTER)) || 
1278:Generated_Source\PSoC5/CapSense_CSD_CSHL.c ****                                  (0u != (posFiltersMask & CapSense_CSD_AVERAGING_FILTER)) )
1279:Generated_Source\PSoC5/CapSense_CSD_CSHL.c ****                             {
1280:Generated_Source\PSoC5/CapSense_CSD_CSHL.c ****                                 CapSense_CSD_posFiltersData[posIndex + 1u] = (uint8) position;
1281:Generated_Source\PSoC5/CapSense_CSD_CSHL.c ****                             }
1282:Generated_Source\PSoC5/CapSense_CSD_CSHL.c ****                         #endif /* ((0u != (CapSense_CSD_MEDIAN_FILTER & \
1283:Generated_Source\PSoC5/CapSense_CSD_CSHL.c ****                                *           CapSense_CSD_LINEAR_SLIDERS_POS_FILTERS_MASK)) || \
1284:Generated_Source\PSoC5/CapSense_CSD_CSHL.c ****                                *   (0u != (CapSense_CSD_AVERAGING_FILTER & \
1285:Generated_Source\PSoC5/CapSense_CSD_CSHL.c ****                                *           CapSense_CSD_LINEAR_SLIDERS_POS_FILTERS_MASK)))
1286:Generated_Source\PSoC5/CapSense_CSD_CSHL.c ****                                */
1287:Generated_Source\PSoC5/CapSense_CSD_CSHL.c ****                         
1288:Generated_Source\PSoC5/CapSense_CSD_CSHL.c ****                         CapSense_CSD_posFiltersData[firstTimeIndex] = 1u;
1289:Generated_Source\PSoC5/CapSense_CSD_CSHL.c ****                     }
1290:Generated_Source\PSoC5/CapSense_CSD_CSHL.c ****                     else
1291:Generated_Source\PSoC5/CapSense_CSD_CSHL.c ****                     {
1292:Generated_Source\PSoC5/CapSense_CSD_CSHL.c ****                         /* Do filtering */
1293:Generated_Source\PSoC5/CapSense_CSD_CSHL.c ****                         #if (0u != (CapSense_CSD_MEDIAN_FILTER & CapSense_CSD_LINEAR_SLIDERS_POS_FI
1294:Generated_Source\PSoC5/CapSense_CSD_CSHL.c ****                             if (0u != (posFiltersMask & CapSense_CSD_MEDIAN_FILTER))
1295:Generated_Source\PSoC5/CapSense_CSD_CSHL.c ****                             {
1296:Generated_Source\PSoC5/CapSense_CSD_CSHL.c ****                                 tempPos = (uint8) position;
1297:Generated_Source\PSoC5/CapSense_CSD_CSHL.c ****                                 position = CapSense_CSD_MedianFilter(position,
1298:Generated_Source\PSoC5/CapSense_CSD_CSHL.c ****                                                                 (uint16)CapSense_CSD_posFiltersData
1299:Generated_Source\PSoC5/CapSense_CSD_CSHL.c ****                                                                 (uint16)CapSense_CSD_posFiltersData
1300:Generated_Source\PSoC5/CapSense_CSD_CSHL.c ****                                 CapSense_CSD_posFiltersData[posIndex + 1u] =
1301:Generated_Source\PSoC5/CapSense_CSD_CSHL.c ****                                                                              CapSense_CSD_posFilter
1302:Generated_Source\PSoC5/CapSense_CSD_CSHL.c ****                                 CapSense_CSD_posFiltersData[posIndex] = tempPos;
1303:Generated_Source\PSoC5/CapSense_CSD_CSHL.c ****                             }
1304:Generated_Source\PSoC5/CapSense_CSD_CSHL.c ****                         #endif /*(0u != (CapSense_CSD_MEDIAN_FILTER &
1305:Generated_Source\PSoC5/CapSense_CSD_CSHL.c ****                                *         CapSense_CSD_LINEAR_SLIDERS_POS_FILTERS_MASK))
1306:Generated_Source\PSoC5/CapSense_CSD_CSHL.c ****                                */
1307:Generated_Source\PSoC5/CapSense_CSD_CSHL.c **** 
1308:Generated_Source\PSoC5/CapSense_CSD_CSHL.c ****                         #if(0u!=(CapSense_CSD_AVERAGING_FILTER & CapSense_CSD_LINEAR_SLIDERS_POS_FI
1309:Generated_Source\PSoC5/CapSense_CSD_CSHL.c ****                             if (0u != (posFiltersMask & CapSense_CSD_AVERAGING_FILTER)) 
1310:Generated_Source\PSoC5/CapSense_CSD_CSHL.c ****                             {
1311:Generated_Source\PSoC5/CapSense_CSD_CSHL.c ****                                 tempPos = (uint8) position;
1312:Generated_Source\PSoC5/CapSense_CSD_CSHL.c ****                                 position = CapSense_CSD_AveragingFilter(position,
1313:Generated_Source\PSoC5/CapSense_CSD_CSHL.c ****                                                                 (uint16)CapSense_CSD_posFiltersData
1314:Generated_Source\PSoC5/CapSense_CSD_CSHL.c ****                                                                 (uint16)CapSense_CSD_posFiltersData
1315:Generated_Source\PSoC5/CapSense_CSD_CSHL.c ****                                 CapSense_CSD_posFiltersData[posIndex+1u]=CapSense_CSD_posFiltersDat
1316:Generated_Source\PSoC5/CapSense_CSD_CSHL.c ****                                 CapSense_CSD_posFiltersData[posIndex] = tempPos;
1317:Generated_Source\PSoC5/CapSense_CSD_CSHL.c ****                             }
1318:Generated_Source\PSoC5/CapSense_CSD_CSHL.c ****                         #endif /* (0u != (CapSense_CSD_AVERAGING_FILTER & \
1319:Generated_Source\PSoC5/CapSense_CSD_CSHL.c ****                                *           CapSense_CSD_LINEAR_SLIDERS_POS_FILTERS_MASK))
1320:Generated_Source\PSoC5/CapSense_CSD_CSHL.c ****                                */
1321:Generated_Source\PSoC5/CapSense_CSD_CSHL.c **** 
1322:Generated_Source\PSoC5/CapSense_CSD_CSHL.c ****                         #if (0u != (CapSense_CSD_IIR2_FILTER & CapSense_CSD_LINEAR_SLIDERS_POS_FILT
1323:Generated_Source\PSoC5/CapSense_CSD_CSHL.c ****                             if (0u != (posFiltersMask & CapSense_CSD_IIR2_FILTER)) 
ARM GAS  C:\Users\sinow\AppData\Local\Temp\ccPiF27t.s 			page 41


1324:Generated_Source\PSoC5/CapSense_CSD_CSHL.c ****                             {
1325:Generated_Source\PSoC5/CapSense_CSD_CSHL.c ****                                 position = CapSense_CSD_IIR2Filter(position,
1326:Generated_Source\PSoC5/CapSense_CSD_CSHL.c ****                                                                     (uint16)CapSense_CSD_posFilters
1327:Generated_Source\PSoC5/CapSense_CSD_CSHL.c ****                                 CapSense_CSD_posFiltersData[posIndex] = (uint8) position;
1328:Generated_Source\PSoC5/CapSense_CSD_CSHL.c ****                             }
1329:Generated_Source\PSoC5/CapSense_CSD_CSHL.c ****                         #endif /* (0u != (CapSense_CSD_IIR2_FILTER & \
1330:Generated_Source\PSoC5/CapSense_CSD_CSHL.c ****                                *          CapSense_CSD_LINEAR_SLIDERS_POS_FILTERS_MASK))
1331:Generated_Source\PSoC5/CapSense_CSD_CSHL.c ****                                */
1332:Generated_Source\PSoC5/CapSense_CSD_CSHL.c **** 
1333:Generated_Source\PSoC5/CapSense_CSD_CSHL.c ****                         #if (0u != (CapSense_CSD_IIR4_FILTER & CapSense_CSD_LINEAR_SLIDERS_POS_FILT
1334:Generated_Source\PSoC5/CapSense_CSD_CSHL.c ****                             if (0u != (posFiltersMask & CapSense_CSD_IIR4_FILTER))
1335:Generated_Source\PSoC5/CapSense_CSD_CSHL.c ****                             {
1336:Generated_Source\PSoC5/CapSense_CSD_CSHL.c ****                                 position = CapSense_CSD_IIR4Filter(position,
1337:Generated_Source\PSoC5/CapSense_CSD_CSHL.c ****                                                                     (uint16)CapSense_CSD_posFilters
1338:Generated_Source\PSoC5/CapSense_CSD_CSHL.c ****                                 CapSense_CSD_posFiltersData[posIndex] = (uint8) position;
1339:Generated_Source\PSoC5/CapSense_CSD_CSHL.c ****                             }                                
1340:Generated_Source\PSoC5/CapSense_CSD_CSHL.c ****                         #endif /* (0u != (CapSense_CSD_IIR4_FILTER & \
1341:Generated_Source\PSoC5/CapSense_CSD_CSHL.c ****                                *          CapSense_CSD_LINEAR_SLIDERS_POS_FILTERS_MASK))
1342:Generated_Source\PSoC5/CapSense_CSD_CSHL.c ****                                */
1343:Generated_Source\PSoC5/CapSense_CSD_CSHL.c **** 
1344:Generated_Source\PSoC5/CapSense_CSD_CSHL.c ****                         #if (0u != (CapSense_CSD_JITTER_FILTER & CapSense_CSD_LINEAR_SLIDERS_POS_FI
1345:Generated_Source\PSoC5/CapSense_CSD_CSHL.c ****                             if (0u != (posFiltersMask & CapSense_CSD_JITTER_FILTER))
1346:Generated_Source\PSoC5/CapSense_CSD_CSHL.c ****                             {
1347:Generated_Source\PSoC5/CapSense_CSD_CSHL.c ****                                 position = CapSense_CSD_JitterFilter(position,
1348:Generated_Source\PSoC5/CapSense_CSD_CSHL.c ****                                                                     (uint16)CapSense_CSD_posFilters
1349:Generated_Source\PSoC5/CapSense_CSD_CSHL.c ****                                 CapSense_CSD_posFiltersData[posIndex] = (uint8) position;
1350:Generated_Source\PSoC5/CapSense_CSD_CSHL.c ****                             }
1351:Generated_Source\PSoC5/CapSense_CSD_CSHL.c ****                         #endif /* (0u != (CapSense_CSD_JITTER_FILTER & \
1352:Generated_Source\PSoC5/CapSense_CSD_CSHL.c ****                                *           CapSense_CSD_LINEAR_SLIDERS_POS_FILTERS_MASK))
1353:Generated_Source\PSoC5/CapSense_CSD_CSHL.c ****                                */
1354:Generated_Source\PSoC5/CapSense_CSD_CSHL.c ****                     }
1355:Generated_Source\PSoC5/CapSense_CSD_CSHL.c ****                 }
1356:Generated_Source\PSoC5/CapSense_CSD_CSHL.c ****             #endif /* (0u != CapSense_CSD_LINEAR_SLIDERS_POS_FILTERS_MASK) */
1357:Generated_Source\PSoC5/CapSense_CSD_CSHL.c **** 
1358:Generated_Source\PSoC5/CapSense_CSD_CSHL.c ****         }
1359:Generated_Source\PSoC5/CapSense_CSD_CSHL.c ****         else
1360:Generated_Source\PSoC5/CapSense_CSD_CSHL.c ****         {
1361:Generated_Source\PSoC5/CapSense_CSD_CSHL.c ****             /* The maximum wasn't found */
1362:Generated_Source\PSoC5/CapSense_CSD_CSHL.c ****             position = 0xFFFFu;
1363:Generated_Source\PSoC5/CapSense_CSD_CSHL.c **** 
1364:Generated_Source\PSoC5/CapSense_CSD_CSHL.c ****             #if(0u != CapSense_CSD_LINEAR_SLIDERS_POS_FILTERS_MASK)
1365:Generated_Source\PSoC5/CapSense_CSD_CSHL.c ****                 /* Reset the filters */
1366:Generated_Source\PSoC5/CapSense_CSD_CSHL.c ****                 if(0u != (posFiltersMask & CapSense_CSD_ANY_POS_FILTER))
1367:Generated_Source\PSoC5/CapSense_CSD_CSHL.c ****                 {
1368:Generated_Source\PSoC5/CapSense_CSD_CSHL.c ****                     CapSense_CSD_posFiltersData[firstTimeIndex] = 0u;
1369:Generated_Source\PSoC5/CapSense_CSD_CSHL.c ****                 }
1370:Generated_Source\PSoC5/CapSense_CSD_CSHL.c ****             #endif /* (0u != CapSense_CSD_LINEAR_SLIDERS_POS_FILTERS_MASK) */
1371:Generated_Source\PSoC5/CapSense_CSD_CSHL.c ****         }
1372:Generated_Source\PSoC5/CapSense_CSD_CSHL.c **** 
1373:Generated_Source\PSoC5/CapSense_CSD_CSHL.c ****         
1374:Generated_Source\PSoC5/CapSense_CSD_CSHL.c ****         return (position);
1375:Generated_Source\PSoC5/CapSense_CSD_CSHL.c ****     }
1376:Generated_Source\PSoC5/CapSense_CSD_CSHL.c **** #endif /* (CapSense_CSD_TOTAL_LINEAR_SLIDERS_COUNT > 0u) */
1377:Generated_Source\PSoC5/CapSense_CSD_CSHL.c **** 
1378:Generated_Source\PSoC5/CapSense_CSD_CSHL.c **** 
1379:Generated_Source\PSoC5/CapSense_CSD_CSHL.c **** #if(CapSense_CSD_TOTAL_RADIAL_SLIDERS_COUNT > 0u)
1380:Generated_Source\PSoC5/CapSense_CSD_CSHL.c ****     /*******************************************************************************
ARM GAS  C:\Users\sinow\AppData\Local\Temp\ccPiF27t.s 			page 42


1381:Generated_Source\PSoC5/CapSense_CSD_CSHL.c ****     * Function Name: CapSense_CSD_GetRadialCentroidPos
1382:Generated_Source\PSoC5/CapSense_CSD_CSHL.c ****     ********************************************************************************
1383:Generated_Source\PSoC5/CapSense_CSD_CSHL.c ****     *
1384:Generated_Source\PSoC5/CapSense_CSD_CSHL.c ****     * Summary:
1385:Generated_Source\PSoC5/CapSense_CSD_CSHL.c ****     *  Checks the CapSense_CSD_Signal[ ] array for a centroid within
1386:Generated_Source\PSoC5/CapSense_CSD_CSHL.c ****     *  slider specified range. The centroid position is calculated to the resolution
1387:Generated_Source\PSoC5/CapSense_CSD_CSHL.c ****     *  specified in the CapSense customizer. The position filters are applied to the
1388:Generated_Source\PSoC5/CapSense_CSD_CSHL.c ****     *  result if enabled.
1389:Generated_Source\PSoC5/CapSense_CSD_CSHL.c ****     *
1390:Generated_Source\PSoC5/CapSense_CSD_CSHL.c ****     * Parameters:
1391:Generated_Source\PSoC5/CapSense_CSD_CSHL.c ****     *  widget:  Widget number.
1392:Generated_Source\PSoC5/CapSense_CSD_CSHL.c ****     *  For every radial slider widget there are defines in this format:
1393:Generated_Source\PSoC5/CapSense_CSD_CSHL.c ****     *  #define CapSense_CSD_RS_"widget_name"            5
1394:Generated_Source\PSoC5/CapSense_CSD_CSHL.c ****     * 
1395:Generated_Source\PSoC5/CapSense_CSD_CSHL.c ****     * Return:
1396:Generated_Source\PSoC5/CapSense_CSD_CSHL.c ****     *  Returns position value of the radial slider.
1397:Generated_Source\PSoC5/CapSense_CSD_CSHL.c ****     *
1398:Generated_Source\PSoC5/CapSense_CSD_CSHL.c ****     * Side Effects:
1399:Generated_Source\PSoC5/CapSense_CSD_CSHL.c ****     *  If any sensor within the slider widget is active, the function returns values
1400:Generated_Source\PSoC5/CapSense_CSD_CSHL.c ****     *  from zero to the API resolution value set in the CapSense customizer. If no
1401:Generated_Source\PSoC5/CapSense_CSD_CSHL.c ****     *  sensors are active, the function returns 0xFFFF.
1402:Generated_Source\PSoC5/CapSense_CSD_CSHL.c ****     *  There are no checks of widget type argument provided to this function.
1403:Generated_Source\PSoC5/CapSense_CSD_CSHL.c ****     *  The unproper widget type provided will cause unexpected position calculations.
1404:Generated_Source\PSoC5/CapSense_CSD_CSHL.c ****     *
1405:Generated_Source\PSoC5/CapSense_CSD_CSHL.c ****     * Note:
1406:Generated_Source\PSoC5/CapSense_CSD_CSHL.c ****     *  If noise counts on the slider segments are greater than the noise
1407:Generated_Source\PSoC5/CapSense_CSD_CSHL.c ****     *  threshold, this subroutine may generate a false centroid result. The noise
1408:Generated_Source\PSoC5/CapSense_CSD_CSHL.c ****     *  threshold should be set carefully (high enough above the noise level) so 
1409:Generated_Source\PSoC5/CapSense_CSD_CSHL.c ****     *  that noise will not generate a false centroid.
1410:Generated_Source\PSoC5/CapSense_CSD_CSHL.c ****     *
1411:Generated_Source\PSoC5/CapSense_CSD_CSHL.c ****     *
1412:Generated_Source\PSoC5/CapSense_CSD_CSHL.c ****     * Reentrant:
1413:Generated_Source\PSoC5/CapSense_CSD_CSHL.c ****     *  No.
1414:Generated_Source\PSoC5/CapSense_CSD_CSHL.c ****     *
1415:Generated_Source\PSoC5/CapSense_CSD_CSHL.c ****     *******************************************************************************/
1416:Generated_Source\PSoC5/CapSense_CSD_CSHL.c ****      uint16 CapSense_CSD_GetRadialCentroidPos(uint8 widget)
1417:Generated_Source\PSoC5/CapSense_CSD_CSHL.c **** 	                                       
1418:Generated_Source\PSoC5/CapSense_CSD_CSHL.c ****     {
1419:Generated_Source\PSoC5/CapSense_CSD_CSHL.c ****         #if (0u != CapSense_CSD_RADIAL_SLIDERS_POS_FILTERS_MASK)
1420:Generated_Source\PSoC5/CapSense_CSD_CSHL.c ****             uint8 posIndex;
1421:Generated_Source\PSoC5/CapSense_CSD_CSHL.c ****             uint8 firstTimeIndex = CapSense_CSD_posFiltersData[widget];
1422:Generated_Source\PSoC5/CapSense_CSD_CSHL.c ****             uint8 posFiltersMask = CapSense_CSD_posFiltersMask[widget]; 
1423:Generated_Source\PSoC5/CapSense_CSD_CSHL.c ****         #endif /* (0u != CapSense_CSD_RADIAL_SLIDERS_POS_FILTERS_MASK) */
1424:Generated_Source\PSoC5/CapSense_CSD_CSHL.c **** 
1425:Generated_Source\PSoC5/CapSense_CSD_CSHL.c ****         #if ((0u != (CapSense_CSD_MEDIAN_FILTER & CapSense_CSD_RADIAL_SLIDERS_POS_FILTERS_MASK)) ||
1426:Generated_Source\PSoC5/CapSense_CSD_CSHL.c ****              (0u != (CapSense_CSD_AVERAGING_FILTER & CapSense_CSD_RADIAL_SLIDERS_POS_FILTERS_MASK))
1427:Generated_Source\PSoC5/CapSense_CSD_CSHL.c ****             uint8 tempPos;
1428:Generated_Source\PSoC5/CapSense_CSD_CSHL.c ****         #endif /* ((0u != (CapSense_CSD_MEDIAN_FILTER & CapSense_CSD_RADIAL_SLIDERS_POS_FILTERS_MAS
1429:Generated_Source\PSoC5/CapSense_CSD_CSHL.c ****                *   (0u != (CapSense_CSD_AVERAGING_FILTER & CapSense_CSD_RADIAL_SLIDERS_POS_FILTERS_
1430:Generated_Source\PSoC5/CapSense_CSD_CSHL.c ****                */
1431:Generated_Source\PSoC5/CapSense_CSD_CSHL.c **** 
1432:Generated_Source\PSoC5/CapSense_CSD_CSHL.c ****         uint8 maximum;
1433:Generated_Source\PSoC5/CapSense_CSD_CSHL.c ****         uint16 position;
1434:Generated_Source\PSoC5/CapSense_CSD_CSHL.c ****         uint8 offset = CapSense_CSD_rawDataIndex[widget];
1435:Generated_Source\PSoC5/CapSense_CSD_CSHL.c ****         uint8 count = CapSense_CSD_numberOfSensors[widget];
1436:Generated_Source\PSoC5/CapSense_CSD_CSHL.c ****         
1437:Generated_Source\PSoC5/CapSense_CSD_CSHL.c ****         /* Find Maximum within centroid */        
ARM GAS  C:\Users\sinow\AppData\Local\Temp\ccPiF27t.s 			page 43


1438:Generated_Source\PSoC5/CapSense_CSD_CSHL.c ****         #if (CapSense_CSD_IS_DIPLEX_SLIDER)
1439:Generated_Source\PSoC5/CapSense_CSD_CSHL.c ****             maximum = CapSense_CSD_FindMaximum(offset, count, CapSense_CSD_fingerThreshold[widget],
1440:Generated_Source\PSoC5/CapSense_CSD_CSHL.c ****         #else
1441:Generated_Source\PSoC5/CapSense_CSD_CSHL.c ****             maximum = CapSense_CSD_FindMaximum(offset, count, CapSense_CSD_fingerThreshold[widget])
1442:Generated_Source\PSoC5/CapSense_CSD_CSHL.c ****         #endif /* (CapSense_CSD_IS_DIPLEX_SLIDER) */
1443:Generated_Source\PSoC5/CapSense_CSD_CSHL.c ****         
1444:Generated_Source\PSoC5/CapSense_CSD_CSHL.c ****         if (maximum != 0xFFu)
1445:Generated_Source\PSoC5/CapSense_CSD_CSHL.c ****         {
1446:Generated_Source\PSoC5/CapSense_CSD_CSHL.c ****             /* Calculate centroid */
1447:Generated_Source\PSoC5/CapSense_CSD_CSHL.c ****             position = (uint16) CapSense_CSD_CalcCentroid(maximum, 
1448:Generated_Source\PSoC5/CapSense_CSD_CSHL.c ****                          offset, count, CapSense_CSD_centroidMult[widget], CapSense_CSD_noiseThresh
1449:Generated_Source\PSoC5/CapSense_CSD_CSHL.c **** 
1450:Generated_Source\PSoC5/CapSense_CSD_CSHL.c ****             #if (0u != CapSense_CSD_RADIAL_SLIDERS_POS_FILTERS_MASK)
1451:Generated_Source\PSoC5/CapSense_CSD_CSHL.c ****                 /* Check if this Radial slider has enabled filters */
1452:Generated_Source\PSoC5/CapSense_CSD_CSHL.c ****                 if (0u != (posFiltersMask & CapSense_CSD_ANY_POS_FILTER))
1453:Generated_Source\PSoC5/CapSense_CSD_CSHL.c ****                 {
1454:Generated_Source\PSoC5/CapSense_CSD_CSHL.c ****                     /* Caluclate position to store filters data */
1455:Generated_Source\PSoC5/CapSense_CSD_CSHL.c ****                     posIndex  = firstTimeIndex + 1u;
1456:Generated_Source\PSoC5/CapSense_CSD_CSHL.c ****                     
1457:Generated_Source\PSoC5/CapSense_CSD_CSHL.c ****                     if (0u == CapSense_CSD_posFiltersData[firstTimeIndex])
1458:Generated_Source\PSoC5/CapSense_CSD_CSHL.c ****                     {
1459:Generated_Source\PSoC5/CapSense_CSD_CSHL.c ****                         /* Init filters */
1460:Generated_Source\PSoC5/CapSense_CSD_CSHL.c ****                         CapSense_CSD_posFiltersData[posIndex] = (uint8) position;
1461:Generated_Source\PSoC5/CapSense_CSD_CSHL.c ****                         #if ((0u != (CapSense_CSD_MEDIAN_FILTER & \
1462:Generated_Source\PSoC5/CapSense_CSD_CSHL.c ****                                      CapSense_CSD_RADIAL_SLIDERS_POS_FILTERS_MASK)) || \
1463:Generated_Source\PSoC5/CapSense_CSD_CSHL.c ****                              (0u != (CapSense_CSD_AVERAGING_FILTER & \
1464:Generated_Source\PSoC5/CapSense_CSD_CSHL.c ****                                      CapSense_CSD_RADIAL_SLIDERS_POS_FILTERS_MASK)))
1465:Generated_Source\PSoC5/CapSense_CSD_CSHL.c **** 
1466:Generated_Source\PSoC5/CapSense_CSD_CSHL.c ****                             if ( (0u != (posFiltersMask & CapSense_CSD_MEDIAN_FILTER))  || 
1467:Generated_Source\PSoC5/CapSense_CSD_CSHL.c ****                                  (0u != (posFiltersMask & CapSense_CSD_AVERAGING_FILTER)) )
1468:Generated_Source\PSoC5/CapSense_CSD_CSHL.c ****                             {
1469:Generated_Source\PSoC5/CapSense_CSD_CSHL.c ****                                 CapSense_CSD_posFiltersData[posIndex + 1u] = (uint8) position;
1470:Generated_Source\PSoC5/CapSense_CSD_CSHL.c ****                             }
1471:Generated_Source\PSoC5/CapSense_CSD_CSHL.c ****                         #endif /* ((0u != (CapSense_CSD_MEDIAN_FILTER & \
1472:Generated_Source\PSoC5/CapSense_CSD_CSHL.c ****                                *           CapSense_CSD_RADIAL_SLIDERS_POS_FILTERS_MASK)) || \
1473:Generated_Source\PSoC5/CapSense_CSD_CSHL.c ****                                *   (0u != (CapSense_CSD_AVERAGING_FILTER & \
1474:Generated_Source\PSoC5/CapSense_CSD_CSHL.c ****                                *           CapSense_CSD_RADIAL_SLIDERS_POS_FILTERS_MASK)))
1475:Generated_Source\PSoC5/CapSense_CSD_CSHL.c ****                                */
1476:Generated_Source\PSoC5/CapSense_CSD_CSHL.c ****                         
1477:Generated_Source\PSoC5/CapSense_CSD_CSHL.c ****                         CapSense_CSD_posFiltersData[firstTimeIndex] = 1u;
1478:Generated_Source\PSoC5/CapSense_CSD_CSHL.c ****                     }
1479:Generated_Source\PSoC5/CapSense_CSD_CSHL.c ****                     else
1480:Generated_Source\PSoC5/CapSense_CSD_CSHL.c ****                     {
1481:Generated_Source\PSoC5/CapSense_CSD_CSHL.c ****                         /* Do filtering */
1482:Generated_Source\PSoC5/CapSense_CSD_CSHL.c ****                         #if (0u != (CapSense_CSD_MEDIAN_FILTER & CapSense_CSD_RADIAL_SLIDERS_POS_FI
1483:Generated_Source\PSoC5/CapSense_CSD_CSHL.c ****                             if (0u != (posFiltersMask & CapSense_CSD_MEDIAN_FILTER))
1484:Generated_Source\PSoC5/CapSense_CSD_CSHL.c ****                             {
1485:Generated_Source\PSoC5/CapSense_CSD_CSHL.c ****                                 tempPos = (uint8) position;
1486:Generated_Source\PSoC5/CapSense_CSD_CSHL.c ****                                 position = CapSense_CSD_MedianFilter(position,
1487:Generated_Source\PSoC5/CapSense_CSD_CSHL.c ****                                                                         CapSense_CSD_posFiltersData
1488:Generated_Source\PSoC5/CapSense_CSD_CSHL.c ****                                                                         CapSense_CSD_posFiltersData
1489:Generated_Source\PSoC5/CapSense_CSD_CSHL.c ****                                 CapSense_CSD_posFiltersData[posIndex + 1u] = 
1490:Generated_Source\PSoC5/CapSense_CSD_CSHL.c ****                                                                               CapSense_CSD_posFilte
1491:Generated_Source\PSoC5/CapSense_CSD_CSHL.c ****                                 CapSense_CSD_posFiltersData[posIndex] = tempPos;
1492:Generated_Source\PSoC5/CapSense_CSD_CSHL.c ****                             }
1493:Generated_Source\PSoC5/CapSense_CSD_CSHL.c ****                         #endif /* (0u != (CapSense_CSD_MEDIAN_FILTER & 
1494:Generated_Source\PSoC5/CapSense_CSD_CSHL.c ****                                *          CapSense_CSD_RADIAL_SLIDERS_POS_FILTERS_MASK))
ARM GAS  C:\Users\sinow\AppData\Local\Temp\ccPiF27t.s 			page 44


1495:Generated_Source\PSoC5/CapSense_CSD_CSHL.c ****                                */
1496:Generated_Source\PSoC5/CapSense_CSD_CSHL.c **** 
1497:Generated_Source\PSoC5/CapSense_CSD_CSHL.c ****                         #if (0u != (CapSense_CSD_AVERAGING_FILTER & \
1498:Generated_Source\PSoC5/CapSense_CSD_CSHL.c ****                                     CapSense_CSD_RADIAL_SLIDERS_POS_FILTERS_MASK))
1499:Generated_Source\PSoC5/CapSense_CSD_CSHL.c ****                             if (0u != (posFiltersMask & CapSense_CSD_AVERAGING_FILTER))
1500:Generated_Source\PSoC5/CapSense_CSD_CSHL.c ****                             {
1501:Generated_Source\PSoC5/CapSense_CSD_CSHL.c ****                                 tempPos = (uint8) position;
1502:Generated_Source\PSoC5/CapSense_CSD_CSHL.c ****                                 position = CapSense_CSD_AveragingFilter(position, 
1503:Generated_Source\PSoC5/CapSense_CSD_CSHL.c ****                                                                        CapSense_CSD_posFiltersData[
1504:Generated_Source\PSoC5/CapSense_CSD_CSHL.c ****                                                                        CapSense_CSD_posFiltersData[
1505:Generated_Source\PSoC5/CapSense_CSD_CSHL.c ****                                 CapSense_CSD_posFiltersData[posIndex+1u]= CapSense_CSD_posFiltersDa
1506:Generated_Source\PSoC5/CapSense_CSD_CSHL.c ****                                 CapSense_CSD_posFiltersData[posIndex] = tempPos;
1507:Generated_Source\PSoC5/CapSense_CSD_CSHL.c ****                             }
1508:Generated_Source\PSoC5/CapSense_CSD_CSHL.c ****                         #endif /* (0u != (CapSense_CSD_AVERAGING_FILTER & \
1509:Generated_Source\PSoC5/CapSense_CSD_CSHL.c ****                                *          CapSense_CSD_RADIAL_SLIDERS_POS_FILTERS_MASK))
1510:Generated_Source\PSoC5/CapSense_CSD_CSHL.c ****                                */
1511:Generated_Source\PSoC5/CapSense_CSD_CSHL.c **** 
1512:Generated_Source\PSoC5/CapSense_CSD_CSHL.c ****                         #if (0u != (CapSense_CSD_IIR2_FILTER & CapSense_CSD_RADIAL_SLIDERS_POS_FILT
1513:Generated_Source\PSoC5/CapSense_CSD_CSHL.c ****                             if (0u != (posFiltersMask & CapSense_CSD_IIR2_FILTER))
1514:Generated_Source\PSoC5/CapSense_CSD_CSHL.c ****                             {
1515:Generated_Source\PSoC5/CapSense_CSD_CSHL.c ****                                 position = CapSense_CSD_IIR2Filter(position,
1516:Generated_Source\PSoC5/CapSense_CSD_CSHL.c ****                                                                     (uint16)CapSense_CSD_posFilters
1517:Generated_Source\PSoC5/CapSense_CSD_CSHL.c ****                                 CapSense_CSD_posFiltersData[posIndex] = (uint8) position;
1518:Generated_Source\PSoC5/CapSense_CSD_CSHL.c ****                             }
1519:Generated_Source\PSoC5/CapSense_CSD_CSHL.c ****                         #endif /* (0u != (CapSense_CSD_IIR2_FILTER & 
1520:Generated_Source\PSoC5/CapSense_CSD_CSHL.c ****                                *          CapSense_CSD_RADIAL_SLIDERS_POS_FILTERS_MASK))
1521:Generated_Source\PSoC5/CapSense_CSD_CSHL.c ****                                */
1522:Generated_Source\PSoC5/CapSense_CSD_CSHL.c **** 
1523:Generated_Source\PSoC5/CapSense_CSD_CSHL.c ****                         #if (0u != (CapSense_CSD_IIR4_FILTER & CapSense_CSD_RADIAL_SLIDERS_POS_FILT
1524:Generated_Source\PSoC5/CapSense_CSD_CSHL.c ****                             if (0u != (posFiltersMask & CapSense_CSD_IIR4_FILTER))
1525:Generated_Source\PSoC5/CapSense_CSD_CSHL.c ****                             {
1526:Generated_Source\PSoC5/CapSense_CSD_CSHL.c ****                                 position = CapSense_CSD_IIR4Filter(position,
1527:Generated_Source\PSoC5/CapSense_CSD_CSHL.c ****                                                                     (uint16)CapSense_CSD_posFilters
1528:Generated_Source\PSoC5/CapSense_CSD_CSHL.c ****                                 CapSense_CSD_posFiltersData[posIndex] = (uint8) position;
1529:Generated_Source\PSoC5/CapSense_CSD_CSHL.c ****                             }
1530:Generated_Source\PSoC5/CapSense_CSD_CSHL.c ****                         #endif /* (0u != (CapSense_CSD_IIR4_FILTER & 
1531:Generated_Source\PSoC5/CapSense_CSD_CSHL.c ****                                *          CapSense_CSD_RADIAL_SLIDERS_POS_FILTERS_MASK))
1532:Generated_Source\PSoC5/CapSense_CSD_CSHL.c ****                                */
1533:Generated_Source\PSoC5/CapSense_CSD_CSHL.c **** 
1534:Generated_Source\PSoC5/CapSense_CSD_CSHL.c ****                         #if (0u != (CapSense_CSD_JITTER_FILTER & CapSense_CSD_RADIAL_SLIDERS_POS_FI
1535:Generated_Source\PSoC5/CapSense_CSD_CSHL.c ****                             if (0u != (posFiltersMask & CapSense_CSD_JITTER_FILTER))
1536:Generated_Source\PSoC5/CapSense_CSD_CSHL.c ****                             {
1537:Generated_Source\PSoC5/CapSense_CSD_CSHL.c ****                                 position = CapSense_CSD_JitterFilter(position, 
1538:Generated_Source\PSoC5/CapSense_CSD_CSHL.c ****                                                                          CapSense_CSD_posFiltersDat
1539:Generated_Source\PSoC5/CapSense_CSD_CSHL.c ****                                 CapSense_CSD_posFiltersData[posIndex] = (uint8) position;
1540:Generated_Source\PSoC5/CapSense_CSD_CSHL.c ****                             }
1541:Generated_Source\PSoC5/CapSense_CSD_CSHL.c ****                         #endif /* (0u != (CapSense_CSD_JITTER_FILTER &
1542:Generated_Source\PSoC5/CapSense_CSD_CSHL.c ****                                *           CapSense_CSD_RADIAL_SLIDERS_POS_FILTERS_MASK))
1543:Generated_Source\PSoC5/CapSense_CSD_CSHL.c ****                                */
1544:Generated_Source\PSoC5/CapSense_CSD_CSHL.c ****                     }
1545:Generated_Source\PSoC5/CapSense_CSD_CSHL.c ****                 }
1546:Generated_Source\PSoC5/CapSense_CSD_CSHL.c ****             #endif /* (0u != CapSense_CSD_RADIAL_SLIDERS_POS_FILTERS_MASK) */
1547:Generated_Source\PSoC5/CapSense_CSD_CSHL.c **** 
1548:Generated_Source\PSoC5/CapSense_CSD_CSHL.c ****         }
1549:Generated_Source\PSoC5/CapSense_CSD_CSHL.c ****         else
1550:Generated_Source\PSoC5/CapSense_CSD_CSHL.c ****         {
1551:Generated_Source\PSoC5/CapSense_CSD_CSHL.c ****             /* The maximum didn't find */
ARM GAS  C:\Users\sinow\AppData\Local\Temp\ccPiF27t.s 			page 45


1552:Generated_Source\PSoC5/CapSense_CSD_CSHL.c ****             position = 0xFFFFu;
1553:Generated_Source\PSoC5/CapSense_CSD_CSHL.c **** 
1554:Generated_Source\PSoC5/CapSense_CSD_CSHL.c ****             #if (0u != CapSense_CSD_RADIAL_SLIDERS_POS_FILTERS_MASK)
1555:Generated_Source\PSoC5/CapSense_CSD_CSHL.c ****                 /* Reset the filters */
1556:Generated_Source\PSoC5/CapSense_CSD_CSHL.c ****                 if((posFiltersMask & CapSense_CSD_ANY_POS_FILTER) != 0u)
1557:Generated_Source\PSoC5/CapSense_CSD_CSHL.c ****                 {
1558:Generated_Source\PSoC5/CapSense_CSD_CSHL.c ****                     CapSense_CSD_posFiltersData[firstTimeIndex] = 0u;
1559:Generated_Source\PSoC5/CapSense_CSD_CSHL.c ****                 }
1560:Generated_Source\PSoC5/CapSense_CSD_CSHL.c ****             #endif /* (0u != CapSense_CSD_RADIAL_SLIDERS_POS_FILTERS_MASK) */
1561:Generated_Source\PSoC5/CapSense_CSD_CSHL.c ****         }
1562:Generated_Source\PSoC5/CapSense_CSD_CSHL.c ****         
1563:Generated_Source\PSoC5/CapSense_CSD_CSHL.c ****         return (position);
1564:Generated_Source\PSoC5/CapSense_CSD_CSHL.c ****     }
1565:Generated_Source\PSoC5/CapSense_CSD_CSHL.c **** #endif
1566:Generated_Source\PSoC5/CapSense_CSD_CSHL.c **** 
1567:Generated_Source\PSoC5/CapSense_CSD_CSHL.c **** 
1568:Generated_Source\PSoC5/CapSense_CSD_CSHL.c **** #if(CapSense_CSD_TOTAL_TOUCH_PADS_COUNT > 0u)
1569:Generated_Source\PSoC5/CapSense_CSD_CSHL.c ****     /*******************************************************************************
1570:Generated_Source\PSoC5/CapSense_CSD_CSHL.c ****     * Function Name: CapSense_CSD_GetTouchCentroidPos
1571:Generated_Source\PSoC5/CapSense_CSD_CSHL.c ****     ********************************************************************************
1572:Generated_Source\PSoC5/CapSense_CSD_CSHL.c ****     *
1573:Generated_Source\PSoC5/CapSense_CSD_CSHL.c ****     * Summary:
1574:Generated_Source\PSoC5/CapSense_CSD_CSHL.c ****     *  If a finger is present on touch pad, this function calculates the X and Y
1575:Generated_Source\PSoC5/CapSense_CSD_CSHL.c ****     *  position of the finger by calculating the centroids within touch pad specified
1576:Generated_Source\PSoC5/CapSense_CSD_CSHL.c ****     *  range. The X and Y positions are calculated to the API resolutions set in the
1577:Generated_Source\PSoC5/CapSense_CSD_CSHL.c ****     *  CapSense customizer. Returns a 1 if a finger is on the touchpad.
1578:Generated_Source\PSoC5/CapSense_CSD_CSHL.c ****     *  The position filter is applied to the result if enabled.
1579:Generated_Source\PSoC5/CapSense_CSD_CSHL.c ****     *  This function is available only if a touch pad is defined by the CapSense
1580:Generated_Source\PSoC5/CapSense_CSD_CSHL.c ****     *  customizer.
1581:Generated_Source\PSoC5/CapSense_CSD_CSHL.c ****     *
1582:Generated_Source\PSoC5/CapSense_CSD_CSHL.c ****     * Parameters:
1583:Generated_Source\PSoC5/CapSense_CSD_CSHL.c ****     *  widget:  Widget number. 
1584:Generated_Source\PSoC5/CapSense_CSD_CSHL.c ****     *  For every touchpad widget there are defines in this format:
1585:Generated_Source\PSoC5/CapSense_CSD_CSHL.c ****     *  #define CapSense_CSD_TP_"widget_name"            5
1586:Generated_Source\PSoC5/CapSense_CSD_CSHL.c ****     *
1587:Generated_Source\PSoC5/CapSense_CSD_CSHL.c ****     *  pos:     Pointer to the array of two uint16 elements, where result
1588:Generated_Source\PSoC5/CapSense_CSD_CSHL.c ****     *  result of calculation of X and Y position are stored.
1589:Generated_Source\PSoC5/CapSense_CSD_CSHL.c ****     *  pos[0u]  - position of X
1590:Generated_Source\PSoC5/CapSense_CSD_CSHL.c ****     *  pos[1u]  - position of Y
1591:Generated_Source\PSoC5/CapSense_CSD_CSHL.c ****     *
1592:Generated_Source\PSoC5/CapSense_CSD_CSHL.c ****     * Return:
1593:Generated_Source\PSoC5/CapSense_CSD_CSHL.c ****     *  Returns a 1 if a finger is on the touch pad, 0 - if not.
1594:Generated_Source\PSoC5/CapSense_CSD_CSHL.c ****     *
1595:Generated_Source\PSoC5/CapSense_CSD_CSHL.c ****     * Side Effects:
1596:Generated_Source\PSoC5/CapSense_CSD_CSHL.c ****     *   There are no checks of widget type argument provided to this function.
1597:Generated_Source\PSoC5/CapSense_CSD_CSHL.c ****     *   The unproper widget type provided will cause unexpected position
1598:Generated_Source\PSoC5/CapSense_CSD_CSHL.c ****     *   calculations.
1599:Generated_Source\PSoC5/CapSense_CSD_CSHL.c ****     *
1600:Generated_Source\PSoC5/CapSense_CSD_CSHL.c ****     * Reentrant:
1601:Generated_Source\PSoC5/CapSense_CSD_CSHL.c ****     *  No.
1602:Generated_Source\PSoC5/CapSense_CSD_CSHL.c ****     *
1603:Generated_Source\PSoC5/CapSense_CSD_CSHL.c ****     *******************************************************************************/
1604:Generated_Source\PSoC5/CapSense_CSD_CSHL.c ****     uint8 CapSense_CSD_GetTouchCentroidPos(uint8 widget, uint16* pos)
1605:Generated_Source\PSoC5/CapSense_CSD_CSHL.c **** 	                                    
1606:Generated_Source\PSoC5/CapSense_CSD_CSHL.c ****     {
1607:Generated_Source\PSoC5/CapSense_CSD_CSHL.c ****         #if (0u != CapSense_CSD_TOUCH_PADS_POS_FILTERS_MASK)
1608:Generated_Source\PSoC5/CapSense_CSD_CSHL.c ****             uint8 posXIndex;
ARM GAS  C:\Users\sinow\AppData\Local\Temp\ccPiF27t.s 			page 46


1609:Generated_Source\PSoC5/CapSense_CSD_CSHL.c ****             uint8 posYIndex;
1610:Generated_Source\PSoC5/CapSense_CSD_CSHL.c ****             uint8 firstTimeIndex = CapSense_CSD_posFiltersData[widget];
1611:Generated_Source\PSoC5/CapSense_CSD_CSHL.c ****             uint8 posFiltersMask = CapSense_CSD_posFiltersMask[widget];
1612:Generated_Source\PSoC5/CapSense_CSD_CSHL.c ****         #endif /* (0u != CapSense_CSD_TOUCH_PADS_POS_FILTERS_MASK) */
1613:Generated_Source\PSoC5/CapSense_CSD_CSHL.c **** 
1614:Generated_Source\PSoC5/CapSense_CSD_CSHL.c ****         #if ((0u != (CapSense_CSD_MEDIAN_FILTER & CapSense_CSD_TOUCH_PADS_POS_FILTERS_MASK)) || \
1615:Generated_Source\PSoC5/CapSense_CSD_CSHL.c ****              (0u != (CapSense_CSD_AVERAGING_FILTER & CapSense_CSD_TOUCH_PADS_POS_FILTERS_MASK)))
1616:Generated_Source\PSoC5/CapSense_CSD_CSHL.c ****             uint16 tempPos;
1617:Generated_Source\PSoC5/CapSense_CSD_CSHL.c ****         #endif /* ((0u != (CapSense_CSD_MEDIAN_FILTER & CapSense_CSD_TOUCH_PADS_POS_FILTERS_MASK)) 
1618:Generated_Source\PSoC5/CapSense_CSD_CSHL.c ****                *   (0u != (CapSense_CSD_AVERAGING_FILTER & CapSense_CSD_TOUCH_PADS_POS_FILTERS_MASK
1619:Generated_Source\PSoC5/CapSense_CSD_CSHL.c ****                */
1620:Generated_Source\PSoC5/CapSense_CSD_CSHL.c **** 
1621:Generated_Source\PSoC5/CapSense_CSD_CSHL.c ****         uint8 maxX;
1622:Generated_Source\PSoC5/CapSense_CSD_CSHL.c ****         uint8 maxY;
1623:Generated_Source\PSoC5/CapSense_CSD_CSHL.c ****         uint8 posX;
1624:Generated_Source\PSoC5/CapSense_CSD_CSHL.c ****         uint8 posY;
1625:Generated_Source\PSoC5/CapSense_CSD_CSHL.c ****         uint8 touch = 0u;
1626:Generated_Source\PSoC5/CapSense_CSD_CSHL.c ****         uint8 offset = CapSense_CSD_rawDataIndex[widget];
1627:Generated_Source\PSoC5/CapSense_CSD_CSHL.c ****         uint8 count = CapSense_CSD_numberOfSensors[widget];
1628:Generated_Source\PSoC5/CapSense_CSD_CSHL.c ****         
1629:Generated_Source\PSoC5/CapSense_CSD_CSHL.c ****         /* Find Maximum within X centroid */
1630:Generated_Source\PSoC5/CapSense_CSD_CSHL.c ****         #if (CapSense_CSD_IS_DIPLEX_SLIDER)
1631:Generated_Source\PSoC5/CapSense_CSD_CSHL.c ****             maxX = CapSense_CSD_FindMaximum(offset, count, CapSense_CSD_fingerThreshold[widget], 0u
1632:Generated_Source\PSoC5/CapSense_CSD_CSHL.c ****         #else
1633:Generated_Source\PSoC5/CapSense_CSD_CSHL.c ****             maxX = CapSense_CSD_FindMaximum(offset, count, CapSense_CSD_fingerThreshold[widget]);
1634:Generated_Source\PSoC5/CapSense_CSD_CSHL.c ****         #endif /* (CapSense_CSD_IS_DIPLEX_SLIDER) */
1635:Generated_Source\PSoC5/CapSense_CSD_CSHL.c **** 
1636:Generated_Source\PSoC5/CapSense_CSD_CSHL.c ****         if (maxX != 0xFFu)
1637:Generated_Source\PSoC5/CapSense_CSD_CSHL.c ****         {
1638:Generated_Source\PSoC5/CapSense_CSD_CSHL.c ****             offset = CapSense_CSD_rawDataIndex[widget + 1u];
1639:Generated_Source\PSoC5/CapSense_CSD_CSHL.c ****             count = CapSense_CSD_numberOfSensors[widget + 1u];
1640:Generated_Source\PSoC5/CapSense_CSD_CSHL.c **** 
1641:Generated_Source\PSoC5/CapSense_CSD_CSHL.c ****             /* Find Maximum within Y centroid */
1642:Generated_Source\PSoC5/CapSense_CSD_CSHL.c ****             #if (CapSense_CSD_IS_DIPLEX_SLIDER)
1643:Generated_Source\PSoC5/CapSense_CSD_CSHL.c ****                 maxY = CapSense_CSD_FindMaximum(offset, count, CapSense_CSD_fingerThreshold[widget 
1644:Generated_Source\PSoC5/CapSense_CSD_CSHL.c ****             #else
1645:Generated_Source\PSoC5/CapSense_CSD_CSHL.c ****                 maxY = CapSense_CSD_FindMaximum(offset, count, CapSense_CSD_fingerThreshold[widget 
1646:Generated_Source\PSoC5/CapSense_CSD_CSHL.c ****             #endif /* (CapSense_CSD_IS_DIPLEX_SLIDER) */
1647:Generated_Source\PSoC5/CapSense_CSD_CSHL.c **** 
1648:Generated_Source\PSoC5/CapSense_CSD_CSHL.c ****             if (maxY != 0xFFu)
1649:Generated_Source\PSoC5/CapSense_CSD_CSHL.c ****             {
1650:Generated_Source\PSoC5/CapSense_CSD_CSHL.c ****                 /* X and Y maximums are found = true touch */
1651:Generated_Source\PSoC5/CapSense_CSD_CSHL.c ****                 touch = 1u;
1652:Generated_Source\PSoC5/CapSense_CSD_CSHL.c ****                 
1653:Generated_Source\PSoC5/CapSense_CSD_CSHL.c ****                 /* Calculate Y centroid */
1654:Generated_Source\PSoC5/CapSense_CSD_CSHL.c ****                 posY = CapSense_CSD_CalcCentroid(maxY, offset, count, 
1655:Generated_Source\PSoC5/CapSense_CSD_CSHL.c ****                             CapSense_CSD_centroidMult[widget + 1u], CapSense_CSD_noiseThreshold[wid
1656:Generated_Source\PSoC5/CapSense_CSD_CSHL.c ****                 
1657:Generated_Source\PSoC5/CapSense_CSD_CSHL.c ****                 /* Calculate X centroid */
1658:Generated_Source\PSoC5/CapSense_CSD_CSHL.c ****                 offset = CapSense_CSD_rawDataIndex[widget];
1659:Generated_Source\PSoC5/CapSense_CSD_CSHL.c ****                 count = CapSense_CSD_numberOfSensors[widget];
1660:Generated_Source\PSoC5/CapSense_CSD_CSHL.c ****                 
1661:Generated_Source\PSoC5/CapSense_CSD_CSHL.c ****                 posX = CapSense_CSD_CalcCentroid(maxX, offset, count, 
1662:Generated_Source\PSoC5/CapSense_CSD_CSHL.c ****                             CapSense_CSD_centroidMult[widget],CapSense_CSD_noiseThreshold[widget]);
1663:Generated_Source\PSoC5/CapSense_CSD_CSHL.c ****     
1664:Generated_Source\PSoC5/CapSense_CSD_CSHL.c ****                 #if (0u != CapSense_CSD_TOUCH_PADS_POS_FILTERS_MASK)
1665:Generated_Source\PSoC5/CapSense_CSD_CSHL.c ****                     /* Check if this TP has enabled filters */
ARM GAS  C:\Users\sinow\AppData\Local\Temp\ccPiF27t.s 			page 47


1666:Generated_Source\PSoC5/CapSense_CSD_CSHL.c ****                     if (0u != (posFiltersMask & CapSense_CSD_ANY_POS_FILTER))
1667:Generated_Source\PSoC5/CapSense_CSD_CSHL.c ****                     {
1668:Generated_Source\PSoC5/CapSense_CSD_CSHL.c ****                         /* Caluclate position to store filters data */
1669:Generated_Source\PSoC5/CapSense_CSD_CSHL.c ****                         posXIndex  = firstTimeIndex + 1u;
1670:Generated_Source\PSoC5/CapSense_CSD_CSHL.c ****                         posYIndex  = CapSense_CSD_posFiltersData[widget + 1u];
1671:Generated_Source\PSoC5/CapSense_CSD_CSHL.c ****                         
1672:Generated_Source\PSoC5/CapSense_CSD_CSHL.c ****                         if (0u == CapSense_CSD_posFiltersData[firstTimeIndex])
1673:Generated_Source\PSoC5/CapSense_CSD_CSHL.c ****                         {
1674:Generated_Source\PSoC5/CapSense_CSD_CSHL.c ****                             /* Init filters */
1675:Generated_Source\PSoC5/CapSense_CSD_CSHL.c ****                             CapSense_CSD_posFiltersData[posXIndex] = posX;
1676:Generated_Source\PSoC5/CapSense_CSD_CSHL.c ****                             CapSense_CSD_posFiltersData[posYIndex] = posY;
1677:Generated_Source\PSoC5/CapSense_CSD_CSHL.c **** 
1678:Generated_Source\PSoC5/CapSense_CSD_CSHL.c ****                             #if((0u != (CapSense_CSD_MEDIAN_FILTER & \
1679:Generated_Source\PSoC5/CapSense_CSD_CSHL.c ****                                         CapSense_CSD_TOUCH_PADS_POS_FILTERS_MASK))|| \
1680:Generated_Source\PSoC5/CapSense_CSD_CSHL.c ****                                 (0u != (CapSense_CSD_AVERAGING_FILTER & \
1681:Generated_Source\PSoC5/CapSense_CSD_CSHL.c ****                                         CapSense_CSD_TOUCH_PADS_POS_FILTERS_MASK)))
1682:Generated_Source\PSoC5/CapSense_CSD_CSHL.c **** 
1683:Generated_Source\PSoC5/CapSense_CSD_CSHL.c ****                                 if ( (0u != (posFiltersMask & CapSense_CSD_MEDIAN_FILTER)) || 
1684:Generated_Source\PSoC5/CapSense_CSD_CSHL.c ****                                      (0u != (posFiltersMask & CapSense_CSD_AVERAGING_FILTER)) )
1685:Generated_Source\PSoC5/CapSense_CSD_CSHL.c ****                                 {
1686:Generated_Source\PSoC5/CapSense_CSD_CSHL.c ****                                     CapSense_CSD_posFiltersData[posXIndex + 1u] = posX;
1687:Generated_Source\PSoC5/CapSense_CSD_CSHL.c ****                                     CapSense_CSD_posFiltersData[posYIndex + 1u] = posY;
1688:Generated_Source\PSoC5/CapSense_CSD_CSHL.c ****                                 }
1689:Generated_Source\PSoC5/CapSense_CSD_CSHL.c ****                             #endif /* ((0u != (CapSense_CSD_MEDIAN_FILTER & \
1690:Generated_Source\PSoC5/CapSense_CSD_CSHL.c ****                                    *           CapSense_CSD_TOUCH_PADS_POS_FILTERS_MASK)) || \
1691:Generated_Source\PSoC5/CapSense_CSD_CSHL.c ****                                    *    (0u != (CapSense_CSD_AVERAGING_FILTER & \
1692:Generated_Source\PSoC5/CapSense_CSD_CSHL.c ****                                    *            CapSense_CSD_TOUCH_PADS_POS_FILTERS_MASK)))
1693:Generated_Source\PSoC5/CapSense_CSD_CSHL.c ****                                    */
1694:Generated_Source\PSoC5/CapSense_CSD_CSHL.c ****                             
1695:Generated_Source\PSoC5/CapSense_CSD_CSHL.c ****                             CapSense_CSD_posFiltersData[firstTimeIndex] = 1u;
1696:Generated_Source\PSoC5/CapSense_CSD_CSHL.c ****                         }
1697:Generated_Source\PSoC5/CapSense_CSD_CSHL.c ****                         else
1698:Generated_Source\PSoC5/CapSense_CSD_CSHL.c ****                         {
1699:Generated_Source\PSoC5/CapSense_CSD_CSHL.c ****                             /* Do filtering */
1700:Generated_Source\PSoC5/CapSense_CSD_CSHL.c ****                             #if (0u != (CapSense_CSD_MEDIAN_FILTER & CapSense_CSD_TOUCH_PADS_POS_FI
1701:Generated_Source\PSoC5/CapSense_CSD_CSHL.c ****                                 if (0u != (posFiltersMask & CapSense_CSD_MEDIAN_FILTER))
1702:Generated_Source\PSoC5/CapSense_CSD_CSHL.c ****                                 {
1703:Generated_Source\PSoC5/CapSense_CSD_CSHL.c ****                                     tempPos = posX;
1704:Generated_Source\PSoC5/CapSense_CSD_CSHL.c ****                                     posX = (uint8) CapSense_CSD_MedianFilter(posX,
1705:Generated_Source\PSoC5/CapSense_CSD_CSHL.c ****                                                                       CapSense_CSD_posFiltersData[p
1706:Generated_Source\PSoC5/CapSense_CSD_CSHL.c ****                                                                       CapSense_CSD_posFiltersData[p
1707:Generated_Source\PSoC5/CapSense_CSD_CSHL.c ****                                     CapSense_CSD_posFiltersData[posXIndex + 1u] = 
1708:Generated_Source\PSoC5/CapSense_CSD_CSHL.c ****                                                                              CapSense_CSD_posFilter
1709:Generated_Source\PSoC5/CapSense_CSD_CSHL.c ****                                     CapSense_CSD_posFiltersData[posXIndex] = tempPos;
1710:Generated_Source\PSoC5/CapSense_CSD_CSHL.c ****                                     
1711:Generated_Source\PSoC5/CapSense_CSD_CSHL.c ****                                     tempPos = posY;
1712:Generated_Source\PSoC5/CapSense_CSD_CSHL.c ****                                     posY = (uint8) CapSense_CSD_MedianFilter(posY,
1713:Generated_Source\PSoC5/CapSense_CSD_CSHL.c ****                                                                        CapSense_CSD_posFiltersData[
1714:Generated_Source\PSoC5/CapSense_CSD_CSHL.c ****                                                                        CapSense_CSD_posFiltersData[
1715:Generated_Source\PSoC5/CapSense_CSD_CSHL.c ****                                     CapSense_CSD_posFiltersData[posYIndex + 1u] = 
1716:Generated_Source\PSoC5/CapSense_CSD_CSHL.c ****                                                                              CapSense_CSD_posFilter
1717:Generated_Source\PSoC5/CapSense_CSD_CSHL.c ****                                     CapSense_CSD_posFiltersData[posYIndex] = tempPos;
1718:Generated_Source\PSoC5/CapSense_CSD_CSHL.c ****                                 }
1719:Generated_Source\PSoC5/CapSense_CSD_CSHL.c ****                                 
1720:Generated_Source\PSoC5/CapSense_CSD_CSHL.c ****                             #endif /* (0u != (CapSense_CSD_MEDIAN_FILTER & \
1721:Generated_Source\PSoC5/CapSense_CSD_CSHL.c ****                                    *          CapSense_CSD_TOUCH_PADS_POS_FILTERS_MASK))
1722:Generated_Source\PSoC5/CapSense_CSD_CSHL.c ****                                    */
ARM GAS  C:\Users\sinow\AppData\Local\Temp\ccPiF27t.s 			page 48


1723:Generated_Source\PSoC5/CapSense_CSD_CSHL.c **** 
1724:Generated_Source\PSoC5/CapSense_CSD_CSHL.c ****                             #if(0u !=(CapSense_CSD_AVERAGING_FILTER & CapSense_CSD_TOUCH_PADS_POS_F
1725:Generated_Source\PSoC5/CapSense_CSD_CSHL.c ****                                 if (0u != (posFiltersMask & CapSense_CSD_AVERAGING_FILTER))
1726:Generated_Source\PSoC5/CapSense_CSD_CSHL.c ****                                 {
1727:Generated_Source\PSoC5/CapSense_CSD_CSHL.c ****                                     tempPos = posX;
1728:Generated_Source\PSoC5/CapSense_CSD_CSHL.c ****                                     posX = (uint8) CapSense_CSD_AveragingFilter(posX,
1729:Generated_Source\PSoC5/CapSense_CSD_CSHL.c ****                                                                        CapSense_CSD_posFiltersData[
1730:Generated_Source\PSoC5/CapSense_CSD_CSHL.c ****                                                                        CapSense_CSD_posFiltersData[
1731:Generated_Source\PSoC5/CapSense_CSD_CSHL.c ****                                     CapSense_CSD_posFiltersData[posXIndex + 1u] = 
1732:Generated_Source\PSoC5/CapSense_CSD_CSHL.c ****                                                                              CapSense_CSD_posFilter
1733:Generated_Source\PSoC5/CapSense_CSD_CSHL.c ****                                     CapSense_CSD_posFiltersData[posXIndex] = tempPos;
1734:Generated_Source\PSoC5/CapSense_CSD_CSHL.c ****                                     
1735:Generated_Source\PSoC5/CapSense_CSD_CSHL.c ****                                     tempPos = posY;
1736:Generated_Source\PSoC5/CapSense_CSD_CSHL.c ****                                     posY = (uint8) CapSense_CSD_AveragingFilter(posY, 
1737:Generated_Source\PSoC5/CapSense_CSD_CSHL.c ****                                                                       CapSense_CSD_posFiltersData[p
1738:Generated_Source\PSoC5/CapSense_CSD_CSHL.c ****                                                                       CapSense_CSD_posFiltersData[p
1739:Generated_Source\PSoC5/CapSense_CSD_CSHL.c ****                                     CapSense_CSD_posFiltersData[posYIndex + 1u] = 
1740:Generated_Source\PSoC5/CapSense_CSD_CSHL.c ****                                                                             CapSense_CSD_posFilters
1741:Generated_Source\PSoC5/CapSense_CSD_CSHL.c ****                                     CapSense_CSD_posFiltersData[posYIndex] = tempPos;
1742:Generated_Source\PSoC5/CapSense_CSD_CSHL.c ****                                 }
1743:Generated_Source\PSoC5/CapSense_CSD_CSHL.c **** 
1744:Generated_Source\PSoC5/CapSense_CSD_CSHL.c ****                             #endif /* (0u != (CapSense_CSD_AVERAGING_FILTER & \
1745:Generated_Source\PSoC5/CapSense_CSD_CSHL.c ****                                    *           CapSense_CSD_TOUCH_PADS_POS_FILTERS_MASK))
1746:Generated_Source\PSoC5/CapSense_CSD_CSHL.c ****                                    */
1747:Generated_Source\PSoC5/CapSense_CSD_CSHL.c **** 
1748:Generated_Source\PSoC5/CapSense_CSD_CSHL.c ****                             #if (0u != (CapSense_CSD_IIR2_FILTER & CapSense_CSD_TOUCH_PADS_POS_FILT
1749:Generated_Source\PSoC5/CapSense_CSD_CSHL.c ****                                 if (0u != (posFiltersMask & CapSense_CSD_IIR2_FILTER))
1750:Generated_Source\PSoC5/CapSense_CSD_CSHL.c ****                                 {
1751:Generated_Source\PSoC5/CapSense_CSD_CSHL.c ****                                     posX = (uint8) CapSense_CSD_IIR2Filter(posX, 
1752:Generated_Source\PSoC5/CapSense_CSD_CSHL.c ****                                                                            CapSense_CSD_posFiltersD
1753:Generated_Source\PSoC5/CapSense_CSD_CSHL.c ****                                     CapSense_CSD_posFiltersData[posXIndex] = posX;
1754:Generated_Source\PSoC5/CapSense_CSD_CSHL.c ****                                     
1755:Generated_Source\PSoC5/CapSense_CSD_CSHL.c ****                                     posY = (uint8) CapSense_CSD_IIR2Filter(posY, 
1756:Generated_Source\PSoC5/CapSense_CSD_CSHL.c ****                                                                             CapSense_CSD_posFilters
1757:Generated_Source\PSoC5/CapSense_CSD_CSHL.c ****                                     CapSense_CSD_posFiltersData[posYIndex] = posY;
1758:Generated_Source\PSoC5/CapSense_CSD_CSHL.c ****                                 }
1759:Generated_Source\PSoC5/CapSense_CSD_CSHL.c ****                                 
1760:Generated_Source\PSoC5/CapSense_CSD_CSHL.c ****                             #endif /* (0u != (CapSense_CSD_IIR2_FILTER & \
1761:Generated_Source\PSoC5/CapSense_CSD_CSHL.c ****                                    *          CapSense_CSD_TOUCH_PADS_POS_FILTERS_MASK))
1762:Generated_Source\PSoC5/CapSense_CSD_CSHL.c ****                                    */
1763:Generated_Source\PSoC5/CapSense_CSD_CSHL.c **** 
1764:Generated_Source\PSoC5/CapSense_CSD_CSHL.c ****                             #if (0u != (CapSense_CSD_IIR4_FILTER & CapSense_CSD_TOUCH_PADS_POS_FILT
1765:Generated_Source\PSoC5/CapSense_CSD_CSHL.c ****                                 if (0u != (posFiltersMask & CapSense_CSD_IIR4_FILTER))
1766:Generated_Source\PSoC5/CapSense_CSD_CSHL.c ****                                 {
1767:Generated_Source\PSoC5/CapSense_CSD_CSHL.c ****                                     posX = (uint8) CapSense_CSD_IIR4Filter((uint16)posX,
1768:Generated_Source\PSoC5/CapSense_CSD_CSHL.c ****                                                                     (uint16)CapSense_CSD_posFilters
1769:Generated_Source\PSoC5/CapSense_CSD_CSHL.c ****                                     CapSense_CSD_posFiltersData[posXIndex] = posX;
1770:Generated_Source\PSoC5/CapSense_CSD_CSHL.c **** 
1771:Generated_Source\PSoC5/CapSense_CSD_CSHL.c ****                                     posY = (uint8) CapSense_CSD_IIR4Filter((uint16)posY,
1772:Generated_Source\PSoC5/CapSense_CSD_CSHL.c ****                                                                     (uint16)CapSense_CSD_posFilters
1773:Generated_Source\PSoC5/CapSense_CSD_CSHL.c ****                                     CapSense_CSD_posFiltersData[posYIndex] = posY;
1774:Generated_Source\PSoC5/CapSense_CSD_CSHL.c ****                                 }
1775:Generated_Source\PSoC5/CapSense_CSD_CSHL.c ****                                 
1776:Generated_Source\PSoC5/CapSense_CSD_CSHL.c ****                             #endif /* (0u != (CapSense_CSD_IIR4_FILTER & \
1777:Generated_Source\PSoC5/CapSense_CSD_CSHL.c ****                                    *           CapSense_CSD_TOUCH_PADS_POS_FILTERS_MASK))
1778:Generated_Source\PSoC5/CapSense_CSD_CSHL.c ****                                    */
1779:Generated_Source\PSoC5/CapSense_CSD_CSHL.c **** 
ARM GAS  C:\Users\sinow\AppData\Local\Temp\ccPiF27t.s 			page 49


1780:Generated_Source\PSoC5/CapSense_CSD_CSHL.c ****                             #if (0u != (CapSense_CSD_JITTER_FILTER & CapSense_CSD_TOUCH_PADS_POS_FI
1781:Generated_Source\PSoC5/CapSense_CSD_CSHL.c ****                                 if (0u != (posFiltersMask & CapSense_CSD_JITTER_FILTER))
1782:Generated_Source\PSoC5/CapSense_CSD_CSHL.c ****                                     {
1783:Generated_Source\PSoC5/CapSense_CSD_CSHL.c ****                                         posX = (uint8) CapSense_CSD_JitterFilter(posX, 
1784:Generated_Source\PSoC5/CapSense_CSD_CSHL.c ****                                                                             CapSense_CSD_posFilters
1785:Generated_Source\PSoC5/CapSense_CSD_CSHL.c ****                                         CapSense_CSD_posFiltersData[posXIndex] = posX;
1786:Generated_Source\PSoC5/CapSense_CSD_CSHL.c ****                                         
1787:Generated_Source\PSoC5/CapSense_CSD_CSHL.c ****                                         posY = (uint8) CapSense_CSD_JitterFilter(posY, 
1788:Generated_Source\PSoC5/CapSense_CSD_CSHL.c ****                                                                             CapSense_CSD_posFilters
1789:Generated_Source\PSoC5/CapSense_CSD_CSHL.c ****                                         CapSense_CSD_posFiltersData[posYIndex] = posY;
1790:Generated_Source\PSoC5/CapSense_CSD_CSHL.c ****                                     }
1791:Generated_Source\PSoC5/CapSense_CSD_CSHL.c ****                             #endif /* (0u != (CapSense_CSD_JITTER_FILTER & \
1792:Generated_Source\PSoC5/CapSense_CSD_CSHL.c ****                                    *           CapSense_CSD_TOUCH_PADS_POS_FILTERS_MASK))
1793:Generated_Source\PSoC5/CapSense_CSD_CSHL.c ****                                    */
1794:Generated_Source\PSoC5/CapSense_CSD_CSHL.c ****                         }
1795:Generated_Source\PSoC5/CapSense_CSD_CSHL.c ****                     }
1796:Generated_Source\PSoC5/CapSense_CSD_CSHL.c ****                 #endif /* (0u != CapSense_CSD_TOUCH_PADS_POS_FILTERS_MASK) */
1797:Generated_Source\PSoC5/CapSense_CSD_CSHL.c **** 
1798:Generated_Source\PSoC5/CapSense_CSD_CSHL.c ****                 /* Save positions */
1799:Generated_Source\PSoC5/CapSense_CSD_CSHL.c ****                 pos[0u] = posX;
1800:Generated_Source\PSoC5/CapSense_CSD_CSHL.c ****                 pos[1u] = posY;
1801:Generated_Source\PSoC5/CapSense_CSD_CSHL.c ****             }
1802:Generated_Source\PSoC5/CapSense_CSD_CSHL.c ****         }
1803:Generated_Source\PSoC5/CapSense_CSD_CSHL.c **** 
1804:Generated_Source\PSoC5/CapSense_CSD_CSHL.c ****         #if (0u != CapSense_CSD_TOUCH_PADS_POS_FILTERS_MASK)
1805:Generated_Source\PSoC5/CapSense_CSD_CSHL.c ****             if(touch == 0u)
1806:Generated_Source\PSoC5/CapSense_CSD_CSHL.c ****             {
1807:Generated_Source\PSoC5/CapSense_CSD_CSHL.c ****                 /* Reset the filters */
1808:Generated_Source\PSoC5/CapSense_CSD_CSHL.c ****                 if ((posFiltersMask & CapSense_CSD_ANY_POS_FILTER) != 0u)
1809:Generated_Source\PSoC5/CapSense_CSD_CSHL.c ****                 {
1810:Generated_Source\PSoC5/CapSense_CSD_CSHL.c ****                     CapSense_CSD_posFiltersData[firstTimeIndex] = 0u;
1811:Generated_Source\PSoC5/CapSense_CSD_CSHL.c ****                 }
1812:Generated_Source\PSoC5/CapSense_CSD_CSHL.c ****             }
1813:Generated_Source\PSoC5/CapSense_CSD_CSHL.c ****         #endif /* (0u != CapSense_CSD_TOUCH_PADS_POS_FILTERS_MASK) */
1814:Generated_Source\PSoC5/CapSense_CSD_CSHL.c ****         
1815:Generated_Source\PSoC5/CapSense_CSD_CSHL.c ****         return (touch);
1816:Generated_Source\PSoC5/CapSense_CSD_CSHL.c ****     }
1817:Generated_Source\PSoC5/CapSense_CSD_CSHL.c **** #endif /* (CapSense_CSD_TOTAL_TOUCH_PADS_COUNT > 0u) */
1818:Generated_Source\PSoC5/CapSense_CSD_CSHL.c **** 
1819:Generated_Source\PSoC5/CapSense_CSD_CSHL.c **** 
1820:Generated_Source\PSoC5/CapSense_CSD_CSHL.c **** #if ( (CapSense_CSD_RAW_FILTER_MASK & CapSense_CSD_MEDIAN_FILTER) | \
1821:Generated_Source\PSoC5/CapSense_CSD_CSHL.c ****       (CapSense_CSD_POS_FILTERS_MASK & CapSense_CSD_MEDIAN_FILTER) )
1822:Generated_Source\PSoC5/CapSense_CSD_CSHL.c ****     /*******************************************************************************
1823:Generated_Source\PSoC5/CapSense_CSD_CSHL.c ****     * Function Name: CapSense_CSD_MedianFilter
1824:Generated_Source\PSoC5/CapSense_CSD_CSHL.c ****     ********************************************************************************
1825:Generated_Source\PSoC5/CapSense_CSD_CSHL.c ****     *
1826:Generated_Source\PSoC5/CapSense_CSD_CSHL.c ****     * Summary:
1827:Generated_Source\PSoC5/CapSense_CSD_CSHL.c ****     *  Median filter function. 
1828:Generated_Source\PSoC5/CapSense_CSD_CSHL.c ****     *  The median filter looks at the three most recent samples and reports the 
1829:Generated_Source\PSoC5/CapSense_CSD_CSHL.c ****     *  median value.
1830:Generated_Source\PSoC5/CapSense_CSD_CSHL.c ****     *
1831:Generated_Source\PSoC5/CapSense_CSD_CSHL.c ****     * Parameters:
1832:Generated_Source\PSoC5/CapSense_CSD_CSHL.c ****     *  x1:  Current value.
1833:Generated_Source\PSoC5/CapSense_CSD_CSHL.c ****     *  x2:  Previous value.
1834:Generated_Source\PSoC5/CapSense_CSD_CSHL.c ****     *  x3:  Before previous value.
1835:Generated_Source\PSoC5/CapSense_CSD_CSHL.c ****     *
1836:Generated_Source\PSoC5/CapSense_CSD_CSHL.c ****     * Return:
ARM GAS  C:\Users\sinow\AppData\Local\Temp\ccPiF27t.s 			page 50


1837:Generated_Source\PSoC5/CapSense_CSD_CSHL.c ****     *  Returns filtered value.
1838:Generated_Source\PSoC5/CapSense_CSD_CSHL.c ****     *
1839:Generated_Source\PSoC5/CapSense_CSD_CSHL.c ****     *******************************************************************************/
1840:Generated_Source\PSoC5/CapSense_CSD_CSHL.c ****     uint16 CapSense_CSD_MedianFilter(uint16 x1, uint16 x2, uint16 x3)
1841:Generated_Source\PSoC5/CapSense_CSD_CSHL.c ****                                          
1842:Generated_Source\PSoC5/CapSense_CSD_CSHL.c ****     {
1843:Generated_Source\PSoC5/CapSense_CSD_CSHL.c ****         uint16 tmp;
1844:Generated_Source\PSoC5/CapSense_CSD_CSHL.c ****         
1845:Generated_Source\PSoC5/CapSense_CSD_CSHL.c ****         if (x1 > x2)
1846:Generated_Source\PSoC5/CapSense_CSD_CSHL.c ****         {
1847:Generated_Source\PSoC5/CapSense_CSD_CSHL.c ****             tmp = x2;
1848:Generated_Source\PSoC5/CapSense_CSD_CSHL.c ****             x2 = x1;
1849:Generated_Source\PSoC5/CapSense_CSD_CSHL.c ****             x1 = tmp;
1850:Generated_Source\PSoC5/CapSense_CSD_CSHL.c ****         }
1851:Generated_Source\PSoC5/CapSense_CSD_CSHL.c ****         
1852:Generated_Source\PSoC5/CapSense_CSD_CSHL.c ****         if (x2 > x3)
1853:Generated_Source\PSoC5/CapSense_CSD_CSHL.c ****         {
1854:Generated_Source\PSoC5/CapSense_CSD_CSHL.c ****             x2 = x3;
1855:Generated_Source\PSoC5/CapSense_CSD_CSHL.c ****         }
1856:Generated_Source\PSoC5/CapSense_CSD_CSHL.c ****         
1857:Generated_Source\PSoC5/CapSense_CSD_CSHL.c ****         return ((x1 > x2) ? x1 : x2);
1858:Generated_Source\PSoC5/CapSense_CSD_CSHL.c ****     }
1859:Generated_Source\PSoC5/CapSense_CSD_CSHL.c **** #endif /* ( (CapSense_CSD_RAW_FILTER_MASK & CapSense_CSD_MEDIAN_FILTER) | \
1860:Generated_Source\PSoC5/CapSense_CSD_CSHL.c ****        *    (CapSense_CSD_POS_FILTERS_MASK & CapSense_CSD_MEDIAN_FILTER) )
1861:Generated_Source\PSoC5/CapSense_CSD_CSHL.c ****        */
1862:Generated_Source\PSoC5/CapSense_CSD_CSHL.c **** 
1863:Generated_Source\PSoC5/CapSense_CSD_CSHL.c **** 
1864:Generated_Source\PSoC5/CapSense_CSD_CSHL.c **** #if ( (CapSense_CSD_RAW_FILTER_MASK & CapSense_CSD_AVERAGING_FILTER) | \
1865:Generated_Source\PSoC5/CapSense_CSD_CSHL.c ****       (CapSense_CSD_POS_FILTERS_MASK & CapSense_CSD_AVERAGING_FILTER) )
1866:Generated_Source\PSoC5/CapSense_CSD_CSHL.c ****     /*******************************************************************************
1867:Generated_Source\PSoC5/CapSense_CSD_CSHL.c ****     * Function Name: CapSense_CSD_AveragingFilter
1868:Generated_Source\PSoC5/CapSense_CSD_CSHL.c ****     ********************************************************************************
1869:Generated_Source\PSoC5/CapSense_CSD_CSHL.c ****     *
1870:Generated_Source\PSoC5/CapSense_CSD_CSHL.c ****     * Summary:
1871:Generated_Source\PSoC5/CapSense_CSD_CSHL.c ****     *  Averaging filter function.
1872:Generated_Source\PSoC5/CapSense_CSD_CSHL.c ****     *  The averaging filter looks at the three most recent samples of position and
1873:Generated_Source\PSoC5/CapSense_CSD_CSHL.c ****     *  reports the averaging value.
1874:Generated_Source\PSoC5/CapSense_CSD_CSHL.c ****     *
1875:Generated_Source\PSoC5/CapSense_CSD_CSHL.c ****     * Parameters:
1876:Generated_Source\PSoC5/CapSense_CSD_CSHL.c ****     *  x1:  Current value.
1877:Generated_Source\PSoC5/CapSense_CSD_CSHL.c ****     *  x2:  Previous value.
1878:Generated_Source\PSoC5/CapSense_CSD_CSHL.c ****     *  x3:  Before previous value.
1879:Generated_Source\PSoC5/CapSense_CSD_CSHL.c ****     *
1880:Generated_Source\PSoC5/CapSense_CSD_CSHL.c ****     * Return:
1881:Generated_Source\PSoC5/CapSense_CSD_CSHL.c ****     *  Returns filtered value.
1882:Generated_Source\PSoC5/CapSense_CSD_CSHL.c ****     *
1883:Generated_Source\PSoC5/CapSense_CSD_CSHL.c ****     *******************************************************************************/
1884:Generated_Source\PSoC5/CapSense_CSD_CSHL.c ****     uint16 CapSense_CSD_AveragingFilter(uint16 x1, uint16 x2, uint16 x3)
1885:Generated_Source\PSoC5/CapSense_CSD_CSHL.c ****                                             
1886:Generated_Source\PSoC5/CapSense_CSD_CSHL.c ****     {
1887:Generated_Source\PSoC5/CapSense_CSD_CSHL.c ****         uint32 tmp = ((uint32)x1 + (uint32)x2 + (uint32)x3) / 3u;
1888:Generated_Source\PSoC5/CapSense_CSD_CSHL.c ****         
1889:Generated_Source\PSoC5/CapSense_CSD_CSHL.c ****         return ((uint16) tmp);
1890:Generated_Source\PSoC5/CapSense_CSD_CSHL.c ****     }
1891:Generated_Source\PSoC5/CapSense_CSD_CSHL.c **** #endif /* ( (CapSense_CSD_RAW_FILTER_MASK & CapSense_CSD_AVERAGING_FILTER) | \
1892:Generated_Source\PSoC5/CapSense_CSD_CSHL.c ****        *    (CapSense_CSD_POS_FILTERS_MASK & CapSense_CSD_AVERAGING_FILTER) )
1893:Generated_Source\PSoC5/CapSense_CSD_CSHL.c ****        */
ARM GAS  C:\Users\sinow\AppData\Local\Temp\ccPiF27t.s 			page 51


1894:Generated_Source\PSoC5/CapSense_CSD_CSHL.c **** 
1895:Generated_Source\PSoC5/CapSense_CSD_CSHL.c **** 
1896:Generated_Source\PSoC5/CapSense_CSD_CSHL.c **** #if ( (CapSense_CSD_RAW_FILTER_MASK & CapSense_CSD_IIR2_FILTER) | \
1897:Generated_Source\PSoC5/CapSense_CSD_CSHL.c ****       (CapSense_CSD_POS_FILTERS_MASK & CapSense_CSD_IIR2_FILTER) )
1898:Generated_Source\PSoC5/CapSense_CSD_CSHL.c ****     /*******************************************************************************
1899:Generated_Source\PSoC5/CapSense_CSD_CSHL.c ****     * Function Name: CapSense_CSD_IIR2Filter
1900:Generated_Source\PSoC5/CapSense_CSD_CSHL.c ****     ********************************************************************************
1901:Generated_Source\PSoC5/CapSense_CSD_CSHL.c ****     *
1902:Generated_Source\PSoC5/CapSense_CSD_CSHL.c ****     * Summary:
1903:Generated_Source\PSoC5/CapSense_CSD_CSHL.c ****     *  IIR1/2 filter function. IIR1/2 = 1/2current + 1/2previous.
1904:Generated_Source\PSoC5/CapSense_CSD_CSHL.c ****     *
1905:Generated_Source\PSoC5/CapSense_CSD_CSHL.c ****     * Parameters:
1906:Generated_Source\PSoC5/CapSense_CSD_CSHL.c ****     *  x1:  Current value.
1907:Generated_Source\PSoC5/CapSense_CSD_CSHL.c ****     *  x2:  Previous value.
1908:Generated_Source\PSoC5/CapSense_CSD_CSHL.c ****     *
1909:Generated_Source\PSoC5/CapSense_CSD_CSHL.c ****     * Return:
1910:Generated_Source\PSoC5/CapSense_CSD_CSHL.c ****     *  Returns filtered value.
1911:Generated_Source\PSoC5/CapSense_CSD_CSHL.c ****     *
1912:Generated_Source\PSoC5/CapSense_CSD_CSHL.c ****     *******************************************************************************/
1913:Generated_Source\PSoC5/CapSense_CSD_CSHL.c ****     uint16 CapSense_CSD_IIR2Filter(uint16 x1, uint16 x2)
1914:Generated_Source\PSoC5/CapSense_CSD_CSHL.c ****                                        
1915:Generated_Source\PSoC5/CapSense_CSD_CSHL.c ****     {
1916:Generated_Source\PSoC5/CapSense_CSD_CSHL.c ****         uint32 tmp;
1917:Generated_Source\PSoC5/CapSense_CSD_CSHL.c ****         
1918:Generated_Source\PSoC5/CapSense_CSD_CSHL.c ****         /* IIR = 1/2 Current Value+ 1/2 Previous Value */
1919:Generated_Source\PSoC5/CapSense_CSD_CSHL.c ****         tmp = (uint32)x1 + (uint32)x2;
1920:Generated_Source\PSoC5/CapSense_CSD_CSHL.c ****         tmp >>= 1u;
1921:Generated_Source\PSoC5/CapSense_CSD_CSHL.c ****     
1922:Generated_Source\PSoC5/CapSense_CSD_CSHL.c ****         return ((uint16) tmp);
1923:Generated_Source\PSoC5/CapSense_CSD_CSHL.c ****     }
1924:Generated_Source\PSoC5/CapSense_CSD_CSHL.c **** #endif /* ( (CapSense_CSD_RAW_FILTER_MASK & CapSense_CSD_IIR2_FILTER) | \
1925:Generated_Source\PSoC5/CapSense_CSD_CSHL.c ****        *    (CapSense_CSD_POS_FILTERS_MASK & CapSense_CSD_IIR2_FILTER) )
1926:Generated_Source\PSoC5/CapSense_CSD_CSHL.c ****        */
1927:Generated_Source\PSoC5/CapSense_CSD_CSHL.c **** 
1928:Generated_Source\PSoC5/CapSense_CSD_CSHL.c **** 
1929:Generated_Source\PSoC5/CapSense_CSD_CSHL.c **** #if ( (CapSense_CSD_RAW_FILTER_MASK & CapSense_CSD_IIR4_FILTER) | \
1930:Generated_Source\PSoC5/CapSense_CSD_CSHL.c ****       (CapSense_CSD_POS_FILTERS_MASK & CapSense_CSD_IIR4_FILTER) )
1931:Generated_Source\PSoC5/CapSense_CSD_CSHL.c ****     /*******************************************************************************
1932:Generated_Source\PSoC5/CapSense_CSD_CSHL.c ****     * Function Name: CapSense_CSD_IIR4Filter
1933:Generated_Source\PSoC5/CapSense_CSD_CSHL.c ****     ********************************************************************************
1934:Generated_Source\PSoC5/CapSense_CSD_CSHL.c ****     *
1935:Generated_Source\PSoC5/CapSense_CSD_CSHL.c ****     * Summary:
1936:Generated_Source\PSoC5/CapSense_CSD_CSHL.c ****     *  IIR1/4 filter function. IIR1/4 = 1/4current + 3/4previous.
1937:Generated_Source\PSoC5/CapSense_CSD_CSHL.c ****     *
1938:Generated_Source\PSoC5/CapSense_CSD_CSHL.c ****     * Parameters:
1939:Generated_Source\PSoC5/CapSense_CSD_CSHL.c ****     *  x1:  Current value.
1940:Generated_Source\PSoC5/CapSense_CSD_CSHL.c ****     *  x2:  Previous value.
1941:Generated_Source\PSoC5/CapSense_CSD_CSHL.c ****     *
1942:Generated_Source\PSoC5/CapSense_CSD_CSHL.c ****     * Return:
1943:Generated_Source\PSoC5/CapSense_CSD_CSHL.c ****     *  Returns filtered value.
1944:Generated_Source\PSoC5/CapSense_CSD_CSHL.c ****     *
1945:Generated_Source\PSoC5/CapSense_CSD_CSHL.c ****     *******************************************************************************/
1946:Generated_Source\PSoC5/CapSense_CSD_CSHL.c ****     uint16 CapSense_CSD_IIR4Filter(uint16 x1, uint16 x2)
1947:Generated_Source\PSoC5/CapSense_CSD_CSHL.c ****                                        
1948:Generated_Source\PSoC5/CapSense_CSD_CSHL.c ****     {
 942              		.loc 1 1948 0
 943              		.cfi_startproc
ARM GAS  C:\Users\sinow\AppData\Local\Temp\ccPiF27t.s 			page 52


 944              		@ args = 0, pretend = 0, frame = 0
 945              		@ frame_needed = 0, uses_anonymous_args = 0
 946              		@ link register save eliminated.
 947              	.LVL118:
1949:Generated_Source\PSoC5/CapSense_CSD_CSHL.c ****         uint32 tmp;
1950:Generated_Source\PSoC5/CapSense_CSD_CSHL.c ****         
1951:Generated_Source\PSoC5/CapSense_CSD_CSHL.c ****         /* IIR = 1/4 Current Value + 3/4 Previous Value */
1952:Generated_Source\PSoC5/CapSense_CSD_CSHL.c ****         tmp = (uint32)x1 + (uint32)x2;
 948              		.loc 1 1952 0
 949 0000 0844     		add	r0, r0, r1
 950              	.LVL119:
1953:Generated_Source\PSoC5/CapSense_CSD_CSHL.c ****         tmp += ((uint32)x2 << 1u);
 951              		.loc 1 1953 0
 952 0002 00EB4100 		add	r0, r0, r1, lsl #1
 953              	.LVL120:
1954:Generated_Source\PSoC5/CapSense_CSD_CSHL.c ****         tmp >>= 2u;
1955:Generated_Source\PSoC5/CapSense_CSD_CSHL.c ****         
1956:Generated_Source\PSoC5/CapSense_CSD_CSHL.c ****         return ((uint16) tmp);
1957:Generated_Source\PSoC5/CapSense_CSD_CSHL.c ****     }
 954              		.loc 1 1957 0
 955 0006 C0F38F00 		ubfx	r0, r0, #2, #16
 956              	.LVL121:
 957 000a 7047     		bx	lr
 958              		.cfi_endproc
 959              	.LFE14:
 960              		.size	CapSense_CSD_IIR4Filter, .-CapSense_CSD_IIR4Filter
 961              		.section	.text.CapSense_CSD_GetCentroidPos,"ax",%progbits
 962              		.align	2
 963              		.global	CapSense_CSD_GetCentroidPos
 964              		.thumb
 965              		.thumb_func
 966              		.type	CapSense_CSD_GetCentroidPos, %function
 967              	CapSense_CSD_GetCentroidPos:
 968              	.LFB13:
1213:Generated_Source\PSoC5/CapSense_CSD_CSHL.c ****         #if (CapSense_CSD_IS_DIPLEX_SLIDER)
 969              		.loc 1 1213 0
 970              		.cfi_startproc
 971              		@ args = 0, pretend = 0, frame = 0
 972              		@ frame_needed = 0, uses_anonymous_args = 0
 973              	.LVL122:
 974 0000 30B5     		push	{r4, r5, lr}
 975              		.cfi_def_cfa_offset 12
 976              		.cfi_offset 4, -12
 977              		.cfi_offset 5, -8
 978              		.cfi_offset 14, -4
 979 0002 83B0     		sub	sp, sp, #12
 980              		.cfi_def_cfa_offset 24
1220:Generated_Source\PSoC5/CapSense_CSD_CSHL.c ****             uint8 posFiltersMask = CapSense_CSD_posFiltersMask[widget];  
 981              		.loc 1 1220 0
 982 0004 144B     		ldr	r3, .L93
 983 0006 1C5C     		ldrb	r4, [r3, r0]	@ zero_extendqisi2
 984              	.LVL123:
1252:Generated_Source\PSoC5/CapSense_CSD_CSHL.c ****         #endif /* (CapSense_CSD_IS_DIPLEX_SLIDER) */
 985              		.loc 1 1252 0
 986 0008 5422     		movs	r2, #84
 987 000a 0521     		movs	r1, #5
 988 000c 0020     		movs	r0, #0
ARM GAS  C:\Users\sinow\AppData\Local\Temp\ccPiF27t.s 			page 53


 989              	.LVL124:
 990 000e FFF7FEFF 		bl	CapSense_CSD_FindMaximum
 991              	.LVL125:
1255:Generated_Source\PSoC5/CapSense_CSD_CSHL.c ****         {
 992              		.loc 1 1255 0
 993 0012 FF28     		cmp	r0, #255
 994 0014 19D0     		beq	.L89
1258:Generated_Source\PSoC5/CapSense_CSD_CSHL.c ****                          offset, count, CapSense_CSD_centroidMult[widget], CapSense_CSD_noiseThresh
 995              		.loc 1 1258 0
 996 0016 2A23     		movs	r3, #42
 997 0018 0093     		str	r3, [sp]
 998 001a 4FF4C853 		mov	r3, #6400
 999 001e 0522     		movs	r2, #5
 1000 0020 0021     		movs	r1, #0
 1001 0022 FFF7FEFF 		bl	CapSense_CSD_CalcCentroid
 1002              	.LVL126:
 1003 0026 0346     		mov	r3, r0
 1004 0028 80B2     		uxth	r0, r0
 1005              	.LVL127:
1266:Generated_Source\PSoC5/CapSense_CSD_CSHL.c ****                     
 1006              		.loc 1 1266 0
 1007 002a 651C     		adds	r5, r4, #1
 1008 002c EDB2     		uxtb	r5, r5
 1009              	.LVL128:
1268:Generated_Source\PSoC5/CapSense_CSD_CSHL.c ****                     {
 1010              		.loc 1 1268 0
 1011 002e 0A4A     		ldr	r2, .L93
 1012 0030 125D     		ldrb	r2, [r2, r4]	@ zero_extendqisi2
 1013 0032 22B9     		cbnz	r2, .L90
1271:Generated_Source\PSoC5/CapSense_CSD_CSHL.c ****                         #if ((0u != (CapSense_CSD_MEDIAN_FILTER & \
 1014              		.loc 1 1271 0
 1015 0034 084A     		ldr	r2, .L93
 1016 0036 5355     		strb	r3, [r2, r5]
1288:Generated_Source\PSoC5/CapSense_CSD_CSHL.c ****                     }
 1017              		.loc 1 1288 0
 1018 0038 0123     		movs	r3, #1
 1019 003a 1355     		strb	r3, [r2, r4]
 1020 003c 0AE0     		b	.L91
 1021              	.L90:
1337:Generated_Source\PSoC5/CapSense_CSD_CSHL.c ****                                 CapSense_CSD_posFiltersData[posIndex] = (uint8) position;
 1022              		.loc 1 1337 0
 1023 003e 064C     		ldr	r4, .L93
 1024              	.LVL129:
1336:Generated_Source\PSoC5/CapSense_CSD_CSHL.c ****                                                                     (uint16)CapSense_CSD_posFilters
 1025              		.loc 1 1336 0
 1026 0040 615D     		ldrb	r1, [r4, r5]	@ zero_extendqisi2
 1027 0042 FFF7FEFF 		bl	CapSense_CSD_IIR4Filter
 1028              	.LVL130:
1338:Generated_Source\PSoC5/CapSense_CSD_CSHL.c ****                             }                                
 1029              		.loc 1 1338 0
 1030 0046 6055     		strb	r0, [r4, r5]
 1031 0048 04E0     		b	.L91
 1032              	.LVL131:
 1033              	.L89:
1368:Generated_Source\PSoC5/CapSense_CSD_CSHL.c ****                 }
 1034              		.loc 1 1368 0
 1035 004a 0022     		movs	r2, #0
ARM GAS  C:\Users\sinow\AppData\Local\Temp\ccPiF27t.s 			page 54


 1036 004c 024B     		ldr	r3, .L93
 1037 004e 1A55     		strb	r2, [r3, r4]
1362:Generated_Source\PSoC5/CapSense_CSD_CSHL.c **** 
 1038              		.loc 1 1362 0
 1039 0050 4FF6FF70 		movw	r0, #65535
 1040              	.LVL132:
 1041              	.L91:
1375:Generated_Source\PSoC5/CapSense_CSD_CSHL.c **** #endif /* (CapSense_CSD_TOTAL_LINEAR_SLIDERS_COUNT > 0u) */
 1042              		.loc 1 1375 0
 1043 0054 03B0     		add	sp, sp, #12
 1044              		.cfi_def_cfa_offset 12
 1045              		@ sp needed
 1046 0056 30BD     		pop	{r4, r5, pc}
 1047              	.L94:
 1048              		.align	2
 1049              	.L93:
 1050 0058 00000000 		.word	.LANCHOR1
 1051              		.cfi_endproc
 1052              	.LFE13:
 1053              		.size	CapSense_CSD_GetCentroidPos, .-CapSense_CSD_GetCentroidPos
 1054              		.global	CapSense_CSD_posFiltersData
 1055              		.global	CapSense_CSD_posFiltersMask
 1056              		.global	CapSense_CSD_centroidMult
 1057              		.global	CapSense_CSD_numberOfSensors
 1058              		.global	CapSense_CSD_rawDataIndex
 1059              		.global	CapSense_CSD_debounceCounter
 1060              		.global	CapSense_CSD_debounce
 1061              		.global	CapSense_CSD_hysteresis
 1062              		.global	CapSense_CSD_noiseThreshold
 1063              		.global	CapSense_CSD_fingerThreshold
 1064              		.comm	CapSense_CSD_lowBaselineResetCnt,5,4
 1065              		.comm	CapSense_CSD_sensorOnMask,1,4
 1066              		.comm	CapSense_CSD_sensorSignal,10,4
 1067              		.comm	CapSense_CSD_sensorBaselineLow,5,4
 1068              		.comm	CapSense_CSD_sensorBaseline,10,4
 1069              		.section	.rodata
 1070              		.align	2
 1071              		.type	CapSense_CSD_posFiltersMask, %object
 1072              		.size	CapSense_CSD_posFiltersMask, 1
 1073              	CapSense_CSD_posFiltersMask:
 1074 0000 08       		.byte	8
 1075 0001 000000   		.space	3
 1076              		.type	CapSense_CSD_centroidMult, %object
 1077              		.size	CapSense_CSD_centroidMult, 2
 1078              	CapSense_CSD_centroidMult:
 1079 0004 0019     		.short	6400
 1080 0006 0000     		.space	2
 1081              		.type	CapSense_CSD_numberOfSensors, %object
 1082              		.size	CapSense_CSD_numberOfSensors, 1
 1083              	CapSense_CSD_numberOfSensors:
 1084 0008 05       		.byte	5
 1085 0009 000000   		.space	3
 1086              		.type	CapSense_CSD_rawDataIndex, %object
 1087              		.size	CapSense_CSD_rawDataIndex, 1
 1088              	CapSense_CSD_rawDataIndex:
 1089 000c 00       		.space	1
 1090 000d 000000   		.space	3
ARM GAS  C:\Users\sinow\AppData\Local\Temp\ccPiF27t.s 			page 55


 1091              		.type	CapSense_CSD_debounce, %object
 1092              		.size	CapSense_CSD_debounce, 1
 1093              	CapSense_CSD_debounce:
 1094 0010 01       		.byte	1
 1095 0011 000000   		.space	3
 1096              		.type	CapSense_CSD_hysteresis, %object
 1097              		.size	CapSense_CSD_hysteresis, 2
 1098              	CapSense_CSD_hysteresis:
 1099 0014 0000     		.space	2
 1100 0016 0000     		.space	2
 1101              		.type	CapSense_CSD_noiseThreshold, %object
 1102              		.size	CapSense_CSD_noiseThreshold, 2
 1103              	CapSense_CSD_noiseThreshold:
 1104 0018 2A00     		.short	42
 1105 001a 0000     		.space	2
 1106              		.type	CapSense_CSD_fingerThreshold, %object
 1107              		.size	CapSense_CSD_fingerThreshold, 2
 1108              	CapSense_CSD_fingerThreshold:
 1109 001c 5400     		.short	84
 1110              		.data
 1111              		.align	2
 1112              		.set	.LANCHOR1,. + 0
 1113              		.type	CapSense_CSD_posFiltersData, %object
 1114              		.size	CapSense_CSD_posFiltersData, 3
 1115              	CapSense_CSD_posFiltersData:
 1116 0000 01       		.byte	1
 1117 0001 00       		.byte	0
 1118 0002 00       		.byte	0
 1119              		.bss
 1120              		.align	2
 1121              		.set	.LANCHOR0,. + 0
 1122              		.type	CapSense_CSD_debounceCounter, %object
 1123              		.size	CapSense_CSD_debounceCounter, 1
 1124              	CapSense_CSD_debounceCounter:
 1125 0000 00       		.space	1
 1126 0001 000000   		.space	3
 1127              		.type	CapSense_CSD_centroid.5269, %object
 1128              		.size	CapSense_CSD_centroid.5269, 6
 1129              	CapSense_CSD_centroid.5269:
 1130 0004 00000000 		.space	6
 1130      0000
 1131              		.text
 1132              	.Letext0:
 1133              		.file 2 "Generated_Source\\PSoC5\\cytypes.h"
 1134              		.file 3 "Generated_Source\\PSoC5\\CapSense_CSD.h"
 1135              		.file 4 "Generated_Source\\PSoC5\\CapSense_CSD_CSHL.h"