ARM GAS  C:\Users\sinow\AppData\Local\Temp\ccf87WsY.s 			page 1


   1              		.syntax unified
   2              		.cpu cortex-m3
   3              		.fpu softvfp
   4              		.eabi_attribute 20, 1
   5              		.eabi_attribute 21, 1
   6              		.eabi_attribute 23, 3
   7              		.eabi_attribute 24, 1
   8              		.eabi_attribute 25, 1
   9              		.eabi_attribute 26, 1
  10              		.eabi_attribute 30, 1
  11              		.eabi_attribute 34, 1
  12              		.eabi_attribute 18, 4
  13              		.thumb
  14              		.syntax unified
  15              		.file	"cyfitter_cfg.c"
  16              		.text
  17              	.Ltext0:
  18              		.cfi_sections	.debug_frame
  19              		.section	.text.CyClockStartupError,"ax",%progbits
  20              		.align	2
  21              		.thumb
  22              		.thumb_func
  23              		.type	CyClockStartupError, %function
  24              	CyClockStartupError:
  25              	.LFB3:
  26              		.file 1 "Generated_Source\\PSoC5\\cyfitter_cfg.c"
   1:Generated_Source\PSoC5/cyfitter_cfg.c **** 
   2:Generated_Source\PSoC5/cyfitter_cfg.c **** /*******************************************************************************
   3:Generated_Source\PSoC5/cyfitter_cfg.c **** * File Name: cyfitter_cfg.c
   4:Generated_Source\PSoC5/cyfitter_cfg.c **** * 
   5:Generated_Source\PSoC5/cyfitter_cfg.c **** * PSoC Creator  4.2
   6:Generated_Source\PSoC5/cyfitter_cfg.c **** *
   7:Generated_Source\PSoC5/cyfitter_cfg.c **** * Description:
   8:Generated_Source\PSoC5/cyfitter_cfg.c **** * This file contains device initialization code.
   9:Generated_Source\PSoC5/cyfitter_cfg.c **** * Except for the user defined sections in CyClockStartupError(), this file should not be modified.
  10:Generated_Source\PSoC5/cyfitter_cfg.c **** * This file is automatically generated by PSoC Creator.
  11:Generated_Source\PSoC5/cyfitter_cfg.c **** *
  12:Generated_Source\PSoC5/cyfitter_cfg.c **** ********************************************************************************
  13:Generated_Source\PSoC5/cyfitter_cfg.c **** * Copyright (c) 2007-2018 Cypress Semiconductor.  All rights reserved.
  14:Generated_Source\PSoC5/cyfitter_cfg.c **** * You may use this file only in accordance with the license, terms, conditions, 
  15:Generated_Source\PSoC5/cyfitter_cfg.c **** * disclaimers, and limitations in the end user license agreement accompanying 
  16:Generated_Source\PSoC5/cyfitter_cfg.c **** * the software package with which this file was provided.
  17:Generated_Source\PSoC5/cyfitter_cfg.c **** ********************************************************************************/
  18:Generated_Source\PSoC5/cyfitter_cfg.c **** 
  19:Generated_Source\PSoC5/cyfitter_cfg.c **** #include <string.h>
  20:Generated_Source\PSoC5/cyfitter_cfg.c **** #include "cytypes.h"
  21:Generated_Source\PSoC5/cyfitter_cfg.c **** #include "cydevice_trm.h"
  22:Generated_Source\PSoC5/cyfitter_cfg.c **** #include "cyfitter.h"
  23:Generated_Source\PSoC5/cyfitter_cfg.c **** #include "CyLib.h"
  24:Generated_Source\PSoC5/cyfitter_cfg.c **** #include "cyfitter_cfg.h"
  25:Generated_Source\PSoC5/cyfitter_cfg.c **** #include "cyapicallbacks.h"
  26:Generated_Source\PSoC5/cyfitter_cfg.c **** 
  27:Generated_Source\PSoC5/cyfitter_cfg.c **** #define CY_NEED_CYCLOCKSTARTUPERROR 1
  28:Generated_Source\PSoC5/cyfitter_cfg.c **** 
  29:Generated_Source\PSoC5/cyfitter_cfg.c **** 
  30:Generated_Source\PSoC5/cyfitter_cfg.c **** #if defined(__GNUC__) || defined(__ARMCC_VERSION)
  31:Generated_Source\PSoC5/cyfitter_cfg.c ****     #define CYPACKED 
ARM GAS  C:\Users\sinow\AppData\Local\Temp\ccf87WsY.s 			page 2


  32:Generated_Source\PSoC5/cyfitter_cfg.c ****     #define CYPACKED_ATTR __attribute__ ((packed))
  33:Generated_Source\PSoC5/cyfitter_cfg.c ****     #define CYALIGNED __attribute__ ((aligned))
  34:Generated_Source\PSoC5/cyfitter_cfg.c ****     #define CY_CFG_UNUSED __attribute__ ((unused))
  35:Generated_Source\PSoC5/cyfitter_cfg.c ****     #ifndef CY_CFG_SECTION
  36:Generated_Source\PSoC5/cyfitter_cfg.c ****         #define CY_CFG_SECTION __attribute__ ((section(".psocinit")))
  37:Generated_Source\PSoC5/cyfitter_cfg.c ****     #endif
  38:Generated_Source\PSoC5/cyfitter_cfg.c ****     
  39:Generated_Source\PSoC5/cyfitter_cfg.c ****     #if defined(__ARMCC_VERSION)
  40:Generated_Source\PSoC5/cyfitter_cfg.c ****         #define CY_CFG_MEMORY_BARRIER() __memory_changed()
  41:Generated_Source\PSoC5/cyfitter_cfg.c ****     #else
  42:Generated_Source\PSoC5/cyfitter_cfg.c ****         #define CY_CFG_MEMORY_BARRIER() __sync_synchronize()
  43:Generated_Source\PSoC5/cyfitter_cfg.c ****     #endif
  44:Generated_Source\PSoC5/cyfitter_cfg.c ****     
  45:Generated_Source\PSoC5/cyfitter_cfg.c **** #elif defined(__ICCARM__)
  46:Generated_Source\PSoC5/cyfitter_cfg.c ****     #include <intrinsics.h>
  47:Generated_Source\PSoC5/cyfitter_cfg.c **** 
  48:Generated_Source\PSoC5/cyfitter_cfg.c ****     #define CYPACKED __packed
  49:Generated_Source\PSoC5/cyfitter_cfg.c ****     #define CYPACKED_ATTR 
  50:Generated_Source\PSoC5/cyfitter_cfg.c ****     #define CYALIGNED _Pragma("data_alignment=4")
  51:Generated_Source\PSoC5/cyfitter_cfg.c ****     #define CY_CFG_UNUSED _Pragma("diag_suppress=Pe177")
  52:Generated_Source\PSoC5/cyfitter_cfg.c ****     #define CY_CFG_SECTION _Pragma("location=\".psocinit\"")
  53:Generated_Source\PSoC5/cyfitter_cfg.c ****     
  54:Generated_Source\PSoC5/cyfitter_cfg.c ****     #define CY_CFG_MEMORY_BARRIER() __DMB()
  55:Generated_Source\PSoC5/cyfitter_cfg.c ****     
  56:Generated_Source\PSoC5/cyfitter_cfg.c **** #else
  57:Generated_Source\PSoC5/cyfitter_cfg.c ****     #error Unsupported toolchain
  58:Generated_Source\PSoC5/cyfitter_cfg.c **** #endif
  59:Generated_Source\PSoC5/cyfitter_cfg.c **** 
  60:Generated_Source\PSoC5/cyfitter_cfg.c **** #ifndef CYCODE
  61:Generated_Source\PSoC5/cyfitter_cfg.c ****     #define CYCODE
  62:Generated_Source\PSoC5/cyfitter_cfg.c **** #endif
  63:Generated_Source\PSoC5/cyfitter_cfg.c **** #ifndef CYDATA
  64:Generated_Source\PSoC5/cyfitter_cfg.c ****     #define CYDATA
  65:Generated_Source\PSoC5/cyfitter_cfg.c **** #endif
  66:Generated_Source\PSoC5/cyfitter_cfg.c **** #ifndef CYFAR
  67:Generated_Source\PSoC5/cyfitter_cfg.c ****     #define CYFAR
  68:Generated_Source\PSoC5/cyfitter_cfg.c **** #endif
  69:Generated_Source\PSoC5/cyfitter_cfg.c **** #ifndef CYXDATA
  70:Generated_Source\PSoC5/cyfitter_cfg.c ****     #define CYXDATA
  71:Generated_Source\PSoC5/cyfitter_cfg.c **** #endif
  72:Generated_Source\PSoC5/cyfitter_cfg.c **** 
  73:Generated_Source\PSoC5/cyfitter_cfg.c **** 
  74:Generated_Source\PSoC5/cyfitter_cfg.c **** CY_CFG_UNUSED
  75:Generated_Source\PSoC5/cyfitter_cfg.c **** static void CYMEMZERO(void *s, size_t n);
  76:Generated_Source\PSoC5/cyfitter_cfg.c **** CY_CFG_UNUSED
  77:Generated_Source\PSoC5/cyfitter_cfg.c **** static void CYMEMZERO(void *s, size_t n)
  78:Generated_Source\PSoC5/cyfitter_cfg.c **** {
  79:Generated_Source\PSoC5/cyfitter_cfg.c **** 	(void)memset(s, 0, n);
  80:Generated_Source\PSoC5/cyfitter_cfg.c **** }
  81:Generated_Source\PSoC5/cyfitter_cfg.c **** CY_CFG_UNUSED
  82:Generated_Source\PSoC5/cyfitter_cfg.c **** static void CYCONFIGCPY(void *dest, const void *src, size_t n);
  83:Generated_Source\PSoC5/cyfitter_cfg.c **** CY_CFG_UNUSED
  84:Generated_Source\PSoC5/cyfitter_cfg.c **** static void CYCONFIGCPY(void *dest, const void *src, size_t n)
  85:Generated_Source\PSoC5/cyfitter_cfg.c **** {
  86:Generated_Source\PSoC5/cyfitter_cfg.c **** 	(void)memcpy(dest, src, n);
  87:Generated_Source\PSoC5/cyfitter_cfg.c **** }
  88:Generated_Source\PSoC5/cyfitter_cfg.c **** CY_CFG_UNUSED
ARM GAS  C:\Users\sinow\AppData\Local\Temp\ccf87WsY.s 			page 3


  89:Generated_Source\PSoC5/cyfitter_cfg.c **** static void CYCONFIGCPYCODE(void *dest, const void *src, size_t n);
  90:Generated_Source\PSoC5/cyfitter_cfg.c **** CY_CFG_UNUSED
  91:Generated_Source\PSoC5/cyfitter_cfg.c **** static void CYCONFIGCPYCODE(void *dest, const void *src, size_t n)
  92:Generated_Source\PSoC5/cyfitter_cfg.c **** {
  93:Generated_Source\PSoC5/cyfitter_cfg.c **** 	(void)memcpy(dest, src, n);
  94:Generated_Source\PSoC5/cyfitter_cfg.c **** }
  95:Generated_Source\PSoC5/cyfitter_cfg.c **** 
  96:Generated_Source\PSoC5/cyfitter_cfg.c **** 
  97:Generated_Source\PSoC5/cyfitter_cfg.c **** 
  98:Generated_Source\PSoC5/cyfitter_cfg.c **** 
  99:Generated_Source\PSoC5/cyfitter_cfg.c **** /* Clock startup error codes                                                   */
 100:Generated_Source\PSoC5/cyfitter_cfg.c **** #define CYCLOCKSTART_NO_ERROR    0u
 101:Generated_Source\PSoC5/cyfitter_cfg.c **** #define CYCLOCKSTART_XTAL_ERROR  1u
 102:Generated_Source\PSoC5/cyfitter_cfg.c **** #define CYCLOCKSTART_32KHZ_ERROR 2u
 103:Generated_Source\PSoC5/cyfitter_cfg.c **** #define CYCLOCKSTART_PLL_ERROR   3u
 104:Generated_Source\PSoC5/cyfitter_cfg.c **** #define CYCLOCKSTART_FLL_ERROR   4u
 105:Generated_Source\PSoC5/cyfitter_cfg.c **** #define CYCLOCKSTART_WCO_ERROR   5u
 106:Generated_Source\PSoC5/cyfitter_cfg.c **** 
 107:Generated_Source\PSoC5/cyfitter_cfg.c **** 
 108:Generated_Source\PSoC5/cyfitter_cfg.c **** #ifdef CY_NEED_CYCLOCKSTARTUPERROR
 109:Generated_Source\PSoC5/cyfitter_cfg.c **** /*******************************************************************************
 110:Generated_Source\PSoC5/cyfitter_cfg.c **** * Function Name: CyClockStartupError
 111:Generated_Source\PSoC5/cyfitter_cfg.c **** ********************************************************************************
 112:Generated_Source\PSoC5/cyfitter_cfg.c **** * Summary:
 113:Generated_Source\PSoC5/cyfitter_cfg.c **** *  If an error is encountered during clock configuration (crystal startup error,
 114:Generated_Source\PSoC5/cyfitter_cfg.c **** *  PLL lock error, etc.), the system will end up here.  Unless reimplemented by
 115:Generated_Source\PSoC5/cyfitter_cfg.c **** *  the customer, this function will stop in an infinite loop.
 116:Generated_Source\PSoC5/cyfitter_cfg.c **** *
 117:Generated_Source\PSoC5/cyfitter_cfg.c **** * Parameters:
 118:Generated_Source\PSoC5/cyfitter_cfg.c **** *   void
 119:Generated_Source\PSoC5/cyfitter_cfg.c **** *
 120:Generated_Source\PSoC5/cyfitter_cfg.c **** * Return:
 121:Generated_Source\PSoC5/cyfitter_cfg.c **** *   void
 122:Generated_Source\PSoC5/cyfitter_cfg.c **** *
 123:Generated_Source\PSoC5/cyfitter_cfg.c **** *******************************************************************************/
 124:Generated_Source\PSoC5/cyfitter_cfg.c **** CY_CFG_UNUSED
 125:Generated_Source\PSoC5/cyfitter_cfg.c **** static void CyClockStartupError(uint8 errorCode);
 126:Generated_Source\PSoC5/cyfitter_cfg.c **** CY_CFG_UNUSED
 127:Generated_Source\PSoC5/cyfitter_cfg.c **** static void CyClockStartupError(uint8 errorCode)
 128:Generated_Source\PSoC5/cyfitter_cfg.c **** {
  27              		.loc 1 128 0
  28              		.cfi_startproc
  29              		@ Volatile: function does not return.
  30              		@ args = 0, pretend = 0, frame = 0
  31              		@ frame_needed = 0, uses_anonymous_args = 0
  32              		@ link register save eliminated.
  33              	.LVL0:
  34              	.L2:
  35 0000 FEE7     		b	.L2
  36              		.cfi_endproc
  37              	.LFE3:
  38              		.size	CyClockStartupError, .-CyClockStartupError
  39 0002 00BF     		.section	.text.cfg_write_bytes32,"ax",%progbits
  40              		.align	2
  41              		.thumb
  42              		.thumb_func
  43              		.type	cfg_write_bytes32, %function
ARM GAS  C:\Users\sinow\AppData\Local\Temp\ccf87WsY.s 			page 4


  44              	cfg_write_bytes32:
  45              	.LFB4:
 129:Generated_Source\PSoC5/cyfitter_cfg.c ****     /* To remove the compiler warning if errorCode not used.                */
 130:Generated_Source\PSoC5/cyfitter_cfg.c ****     errorCode = errorCode;
 131:Generated_Source\PSoC5/cyfitter_cfg.c **** 
 132:Generated_Source\PSoC5/cyfitter_cfg.c ****     /* If we have a clock startup error (bad MHz crystal, PLL lock, etc.),  */
 133:Generated_Source\PSoC5/cyfitter_cfg.c ****     /* we will end up here to allow the customer to implement something to  */
 134:Generated_Source\PSoC5/cyfitter_cfg.c ****     /* deal with the clock condition.                                       */
 135:Generated_Source\PSoC5/cyfitter_cfg.c **** 
 136:Generated_Source\PSoC5/cyfitter_cfg.c **** #ifdef CY_CFG_CLOCK_STARTUP_ERROR_CALLBACK
 137:Generated_Source\PSoC5/cyfitter_cfg.c ****     CY_CFG_Clock_Startup_ErrorCallback();
 138:Generated_Source\PSoC5/cyfitter_cfg.c **** #else
 139:Generated_Source\PSoC5/cyfitter_cfg.c ****     /*  If not using CY_CFG_CLOCK_STARTUP_ERROR_CALLBACK, place your clock startup code here. */
 140:Generated_Source\PSoC5/cyfitter_cfg.c ****     /* `#START CyClockStartupError` */
 141:Generated_Source\PSoC5/cyfitter_cfg.c **** 
 142:Generated_Source\PSoC5/cyfitter_cfg.c **** 
 143:Generated_Source\PSoC5/cyfitter_cfg.c **** 
 144:Generated_Source\PSoC5/cyfitter_cfg.c ****     /* `#END` */
 145:Generated_Source\PSoC5/cyfitter_cfg.c **** 
 146:Generated_Source\PSoC5/cyfitter_cfg.c ****     while(1) {}
 147:Generated_Source\PSoC5/cyfitter_cfg.c **** #endif /* CY_CFG_CLOCK_STARTUP_ERROR_CALLBACK */
 148:Generated_Source\PSoC5/cyfitter_cfg.c **** }
 149:Generated_Source\PSoC5/cyfitter_cfg.c **** #endif
 150:Generated_Source\PSoC5/cyfitter_cfg.c **** 
 151:Generated_Source\PSoC5/cyfitter_cfg.c **** #define CY_CFG_BASE_ADDR_COUNT 34u
 152:Generated_Source\PSoC5/cyfitter_cfg.c **** CYPACKED typedef struct
 153:Generated_Source\PSoC5/cyfitter_cfg.c **** {
 154:Generated_Source\PSoC5/cyfitter_cfg.c **** 	uint8 offset;
 155:Generated_Source\PSoC5/cyfitter_cfg.c **** 	uint8 value;
 156:Generated_Source\PSoC5/cyfitter_cfg.c **** } CYPACKED_ATTR cy_cfg_addrvalue_t;
 157:Generated_Source\PSoC5/cyfitter_cfg.c **** 
 158:Generated_Source\PSoC5/cyfitter_cfg.c **** #define cy_cfg_addr_table ((const uint32 CYFAR *)0x48000000u)
 159:Generated_Source\PSoC5/cyfitter_cfg.c **** #define cy_cfg_data_table ((const cy_cfg_addrvalue_t CYFAR *)0x48000088u)
 160:Generated_Source\PSoC5/cyfitter_cfg.c **** 
 161:Generated_Source\PSoC5/cyfitter_cfg.c **** /* UDB_1_4_0_CONFIG Address: CYDEV_UCFG_B0_P1_U1_BASE Size (bytes): 128 */
 162:Generated_Source\PSoC5/cyfitter_cfg.c **** #define BS_UDB_1_4_0_CONFIG_VAL ((const uint8 CYFAR *)0x4800058Cu)
 163:Generated_Source\PSoC5/cyfitter_cfg.c **** 
 164:Generated_Source\PSoC5/cyfitter_cfg.c **** /* IOPINS0_0 Address: CYREG_PRT0_DM0 Size (bytes): 8 */
 165:Generated_Source\PSoC5/cyfitter_cfg.c **** #define BS_IOPINS0_0_VAL ((const uint8 CYFAR *)0x4800060Cu)
 166:Generated_Source\PSoC5/cyfitter_cfg.c **** 
 167:Generated_Source\PSoC5/cyfitter_cfg.c **** /* IOPINS0_1 Address: CYREG_PRT1_DM0 Size (bytes): 8 */
 168:Generated_Source\PSoC5/cyfitter_cfg.c **** #define BS_IOPINS0_1_VAL ((const uint8 CYFAR *)0x48000614u)
 169:Generated_Source\PSoC5/cyfitter_cfg.c **** 
 170:Generated_Source\PSoC5/cyfitter_cfg.c **** /* IOPINS0_2 Address: CYREG_PRT2_DM0 Size (bytes): 8 */
 171:Generated_Source\PSoC5/cyfitter_cfg.c **** #define BS_IOPINS0_2_VAL ((const uint8 CYFAR *)0x4800061Cu)
 172:Generated_Source\PSoC5/cyfitter_cfg.c **** 
 173:Generated_Source\PSoC5/cyfitter_cfg.c **** /* IOPINS0_4 Address: CYREG_PRT4_DM0 Size (bytes): 8 */
 174:Generated_Source\PSoC5/cyfitter_cfg.c **** #define BS_IOPINS0_4_VAL ((const uint8 CYFAR *)0x48000624u)
 175:Generated_Source\PSoC5/cyfitter_cfg.c **** 
 176:Generated_Source\PSoC5/cyfitter_cfg.c **** /* IOPINS0_5 Address: CYREG_PRT5_DM0 Size (bytes): 8 */
 177:Generated_Source\PSoC5/cyfitter_cfg.c **** #define BS_IOPINS0_5_VAL ((const uint8 CYFAR *)0x4800062Cu)
 178:Generated_Source\PSoC5/cyfitter_cfg.c **** 
 179:Generated_Source\PSoC5/cyfitter_cfg.c **** /* IOPINS0_6 Address: CYREG_PRT6_DM0 Size (bytes): 8 */
 180:Generated_Source\PSoC5/cyfitter_cfg.c **** #define BS_IOPINS0_6_VAL ((const uint8 CYFAR *)0x48000634u)
 181:Generated_Source\PSoC5/cyfitter_cfg.c **** 
 182:Generated_Source\PSoC5/cyfitter_cfg.c **** /* CYDEV_CLKDIST_ACFG0_CFG0 Address: CYREG_CLKDIST_ACFG0_CFG0 Size (bytes): 4 */
 183:Generated_Source\PSoC5/cyfitter_cfg.c **** #define BS_CYDEV_CLKDIST_ACFG0_CFG0_VAL ((const uint8 CYFAR *)0x4800063Cu)
ARM GAS  C:\Users\sinow\AppData\Local\Temp\ccf87WsY.s 			page 5


 184:Generated_Source\PSoC5/cyfitter_cfg.c **** 
 185:Generated_Source\PSoC5/cyfitter_cfg.c **** 
 186:Generated_Source\PSoC5/cyfitter_cfg.c **** /*******************************************************************************
 187:Generated_Source\PSoC5/cyfitter_cfg.c **** * Function Name: cfg_write_bytes32
 188:Generated_Source\PSoC5/cyfitter_cfg.c **** ********************************************************************************
 189:Generated_Source\PSoC5/cyfitter_cfg.c **** * Summary:
 190:Generated_Source\PSoC5/cyfitter_cfg.c **** *  This function is used for setting up the chip configuration areas that
 191:Generated_Source\PSoC5/cyfitter_cfg.c **** *  contain relatively sparse data.
 192:Generated_Source\PSoC5/cyfitter_cfg.c **** *
 193:Generated_Source\PSoC5/cyfitter_cfg.c **** * Parameters:
 194:Generated_Source\PSoC5/cyfitter_cfg.c **** *   void
 195:Generated_Source\PSoC5/cyfitter_cfg.c **** *
 196:Generated_Source\PSoC5/cyfitter_cfg.c **** * Return:
 197:Generated_Source\PSoC5/cyfitter_cfg.c **** *   void
 198:Generated_Source\PSoC5/cyfitter_cfg.c **** *
 199:Generated_Source\PSoC5/cyfitter_cfg.c **** *******************************************************************************/
 200:Generated_Source\PSoC5/cyfitter_cfg.c **** static void cfg_write_bytes32(const uint32 addr_table[], const cy_cfg_addrvalue_t data_table[]);
 201:Generated_Source\PSoC5/cyfitter_cfg.c **** static void cfg_write_bytes32(const uint32 addr_table[], const cy_cfg_addrvalue_t data_table[])
 202:Generated_Source\PSoC5/cyfitter_cfg.c **** {
  46              		.loc 1 202 0
  47              		.cfi_startproc
  48              		@ args = 0, pretend = 0, frame = 0
  49              		@ frame_needed = 0, uses_anonymous_args = 0
  50              		@ link register save eliminated.
  51              	.LVL1:
  52              		.loc 1 202 0
  53 0000 F0B4     		push	{r4, r5, r6, r7}
  54              		.cfi_def_cfa_offset 16
  55              		.cfi_offset 4, -16
  56              		.cfi_offset 5, -12
  57              		.cfi_offset 6, -8
  58              		.cfi_offset 7, -4
  59              	.LVL2:
 203:Generated_Source\PSoC5/cyfitter_cfg.c **** 	/* For 32-bit little-endian architectures */
 204:Generated_Source\PSoC5/cyfitter_cfg.c **** 	uint32 i, j = 0u;
  60              		.loc 1 204 0
  61 0002 0022     		movs	r2, #0
 205:Generated_Source\PSoC5/cyfitter_cfg.c **** 	for (i = 0u; i < CY_CFG_BASE_ADDR_COUNT; i++)
  62              		.loc 1 205 0
  63 0004 1746     		mov	r7, r2
  64 0006 11E0     		b	.L4
  65              	.LVL3:
  66              	.L7:
  67              	.LBB2:
 206:Generated_Source\PSoC5/cyfitter_cfg.c **** 	{
 207:Generated_Source\PSoC5/cyfitter_cfg.c **** 		uint32 baseAddr = addr_table[i];
  68              		.loc 1 207 0
  69 0008 50F82760 		ldr	r6, [r0, r7, lsl #2]
  70              	.LVL4:
 208:Generated_Source\PSoC5/cyfitter_cfg.c **** 		uint8 count = (uint8)baseAddr;
  71              		.loc 1 208 0
  72 000c F3B2     		uxtb	r3, r6
  73              	.LVL5:
 209:Generated_Source\PSoC5/cyfitter_cfg.c **** 		baseAddr &= 0xFFFFFF00u;
  74              		.loc 1 209 0
  75 000e 26F0FF06 		bic	r6, r6, #255
  76              	.LVL6:
ARM GAS  C:\Users\sinow\AppData\Local\Temp\ccf87WsY.s 			page 6


 210:Generated_Source\PSoC5/cyfitter_cfg.c **** 		while (count != 0u)
  77              		.loc 1 210 0
  78 0012 08E0     		b	.L5
  79              	.L6:
 211:Generated_Source\PSoC5/cyfitter_cfg.c **** 		{
 212:Generated_Source\PSoC5/cyfitter_cfg.c **** 			CY_SET_REG8((void *)(baseAddr + data_table[j].offset), data_table[j].value);
  80              		.loc 1 212 0
  81 0014 01EB4205 		add	r5, r1, r2, lsl #1
  82 0018 11F81240 		ldrb	r4, [r1, r2, lsl #1]	@ zero_extendqisi2
  83 001c 6D78     		ldrb	r5, [r5, #1]	@ zero_extendqisi2
  84 001e A555     		strb	r5, [r4, r6]
 213:Generated_Source\PSoC5/cyfitter_cfg.c **** 			j++;
  85              		.loc 1 213 0
  86 0020 0132     		adds	r2, r2, #1
  87              	.LVL7:
 214:Generated_Source\PSoC5/cyfitter_cfg.c **** 			count--;
  88              		.loc 1 214 0
  89 0022 013B     		subs	r3, r3, #1
  90              	.LVL8:
  91 0024 DBB2     		uxtb	r3, r3
  92              	.LVL9:
  93              	.L5:
 210:Generated_Source\PSoC5/cyfitter_cfg.c **** 		{
  94              		.loc 1 210 0
  95 0026 002B     		cmp	r3, #0
  96 0028 F4D1     		bne	.L6
  97              	.LBE2:
 205:Generated_Source\PSoC5/cyfitter_cfg.c **** 	{
  98              		.loc 1 205 0 discriminator 2
  99 002a 0137     		adds	r7, r7, #1
 100              	.LVL10:
 101              	.L4:
 205:Generated_Source\PSoC5/cyfitter_cfg.c **** 	{
 102              		.loc 1 205 0 is_stmt 0 discriminator 1
 103 002c 212F     		cmp	r7, #33
 104 002e EBD9     		bls	.L7
 215:Generated_Source\PSoC5/cyfitter_cfg.c **** 		}
 216:Generated_Source\PSoC5/cyfitter_cfg.c **** 	}
 217:Generated_Source\PSoC5/cyfitter_cfg.c **** }
 105              		.loc 1 217 0 is_stmt 1
 106 0030 F0BC     		pop	{r4, r5, r6, r7}
 107              		.cfi_restore 7
 108              		.cfi_restore 6
 109              		.cfi_restore 5
 110              		.cfi_restore 4
 111              		.cfi_def_cfa_offset 0
 112              	.LVL11:
 113 0032 7047     		bx	lr
 114              		.cfi_endproc
 115              	.LFE4:
 116              		.size	cfg_write_bytes32, .-cfg_write_bytes32
 117              		.section	.text.CYMEMZERO,"ax",%progbits
 118              		.align	2
 119              		.thumb
 120              		.thumb_func
 121              		.type	CYMEMZERO, %function
 122              	CYMEMZERO:
ARM GAS  C:\Users\sinow\AppData\Local\Temp\ccf87WsY.s 			page 7


 123              	.LFB0:
  78:Generated_Source\PSoC5/cyfitter_cfg.c **** 	(void)memset(s, 0, n);
 124              		.loc 1 78 0
 125              		.cfi_startproc
 126              		@ args = 0, pretend = 0, frame = 0
 127              		@ frame_needed = 0, uses_anonymous_args = 0
 128              	.LVL12:
 129 0000 08B5     		push	{r3, lr}
 130              		.cfi_def_cfa_offset 8
 131              		.cfi_offset 3, -8
 132              		.cfi_offset 14, -4
  79:Generated_Source\PSoC5/cyfitter_cfg.c **** }
 133              		.loc 1 79 0
 134 0002 0A46     		mov	r2, r1
 135 0004 0021     		movs	r1, #0
 136              	.LVL13:
 137 0006 FFF7FEFF 		bl	memset
 138              	.LVL14:
 139 000a 08BD     		pop	{r3, pc}
 140              		.cfi_endproc
 141              	.LFE0:
 142              		.size	CYMEMZERO, .-CYMEMZERO
 143              		.section	.text.AnalogSetDefault,"ax",%progbits
 144              		.align	2
 145              		.thumb
 146              		.thumb_func
 147              		.type	AnalogSetDefault, %function
 148              	AnalogSetDefault:
 149              	.LFB6:
 218:Generated_Source\PSoC5/cyfitter_cfg.c **** 
 219:Generated_Source\PSoC5/cyfitter_cfg.c **** /*******************************************************************************
 220:Generated_Source\PSoC5/cyfitter_cfg.c **** * Function Name: ClockSetup
 221:Generated_Source\PSoC5/cyfitter_cfg.c **** ********************************************************************************
 222:Generated_Source\PSoC5/cyfitter_cfg.c **** *
 223:Generated_Source\PSoC5/cyfitter_cfg.c **** * Summary:
 224:Generated_Source\PSoC5/cyfitter_cfg.c **** *  Performs the initialization of all of the clocks in the device based on the
 225:Generated_Source\PSoC5/cyfitter_cfg.c **** *  settings in the Clock tab of the DWR.  This includes enabling the requested
 226:Generated_Source\PSoC5/cyfitter_cfg.c **** *  clocks and setting the necessary dividers to produce the desired frequency. 
 227:Generated_Source\PSoC5/cyfitter_cfg.c **** *
 228:Generated_Source\PSoC5/cyfitter_cfg.c **** * Parameters:
 229:Generated_Source\PSoC5/cyfitter_cfg.c **** *  void
 230:Generated_Source\PSoC5/cyfitter_cfg.c **** *
 231:Generated_Source\PSoC5/cyfitter_cfg.c **** * Return:
 232:Generated_Source\PSoC5/cyfitter_cfg.c **** *  void
 233:Generated_Source\PSoC5/cyfitter_cfg.c **** *
 234:Generated_Source\PSoC5/cyfitter_cfg.c **** *******************************************************************************/
 235:Generated_Source\PSoC5/cyfitter_cfg.c **** static void ClockSetup(void);
 236:Generated_Source\PSoC5/cyfitter_cfg.c **** static void ClockSetup(void)
 237:Generated_Source\PSoC5/cyfitter_cfg.c **** {
 238:Generated_Source\PSoC5/cyfitter_cfg.c **** 	uint32 timeout;
 239:Generated_Source\PSoC5/cyfitter_cfg.c **** 	uint8 pllLock;
 240:Generated_Source\PSoC5/cyfitter_cfg.c **** 
 241:Generated_Source\PSoC5/cyfitter_cfg.c **** 
 242:Generated_Source\PSoC5/cyfitter_cfg.c **** 	/* Configure Digital Clocks based on settings from Clock DWR */
 243:Generated_Source\PSoC5/cyfitter_cfg.c **** 	CY_SET_XTND_REG16((void CYFAR *)(CYREG_CLKDIST_DCFG0_CFG0), 0x0000u);
 244:Generated_Source\PSoC5/cyfitter_cfg.c **** 	CY_SET_XTND_REG8((void CYFAR *)(CYREG_CLKDIST_DCFG0_CFG0 + 0x2u), 0x50u);
 245:Generated_Source\PSoC5/cyfitter_cfg.c **** 	CY_SET_XTND_REG16((void CYFAR *)(CYREG_CLKDIST_DCFG1_CFG0), 0x0001u);
ARM GAS  C:\Users\sinow\AppData\Local\Temp\ccf87WsY.s 			page 8


 246:Generated_Source\PSoC5/cyfitter_cfg.c **** 	CY_SET_XTND_REG8((void CYFAR *)(CYREG_CLKDIST_DCFG1_CFG0 + 0x2u), 0x18u);
 247:Generated_Source\PSoC5/cyfitter_cfg.c **** 	CY_SET_XTND_REG16((void CYFAR *)(CYREG_CLKDIST_DCFG2_CFG0), 0x000Bu);
 248:Generated_Source\PSoC5/cyfitter_cfg.c **** 	CY_SET_XTND_REG8((void CYFAR *)(CYREG_CLKDIST_DCFG2_CFG0 + 0x2u), 0x18u);
 249:Generated_Source\PSoC5/cyfitter_cfg.c **** 
 250:Generated_Source\PSoC5/cyfitter_cfg.c **** 	/* Configure Analog Clocks based on settings from Clock DWR */
 251:Generated_Source\PSoC5/cyfitter_cfg.c **** 	CYCONFIGCPY((void CYFAR *)(CYREG_CLKDIST_ACFG0_CFG0), (const void CYFAR *)(BS_CYDEV_CLKDIST_ACFG0_
 252:Generated_Source\PSoC5/cyfitter_cfg.c **** 
 253:Generated_Source\PSoC5/cyfitter_cfg.c **** 	/* Configure ILO based on settings from Clock DWR */
 254:Generated_Source\PSoC5/cyfitter_cfg.c **** 	CY_SET_XTND_REG8((void CYFAR *)(CYREG_SLOWCLK_ILO_CR0), 0x02u);
 255:Generated_Source\PSoC5/cyfitter_cfg.c **** 	CY_SET_XTND_REG8((void CYFAR *)(CYREG_CLKDIST_CR), 0x08u);
 256:Generated_Source\PSoC5/cyfitter_cfg.c **** 
 257:Generated_Source\PSoC5/cyfitter_cfg.c **** 	/* Configure IMO based on settings from Clock DWR */
 258:Generated_Source\PSoC5/cyfitter_cfg.c **** 	CY_SET_XTND_REG8((void CYFAR *)(CYREG_FASTCLK_IMO_CR), 0x03u);
 259:Generated_Source\PSoC5/cyfitter_cfg.c **** 	CY_SET_XTND_REG8((void CYFAR *)(CYREG_IMO_TR1), (CY_GET_XTND_REG8((void CYFAR *)CYREG_FLSHID_CUST_
 260:Generated_Source\PSoC5/cyfitter_cfg.c **** 
 261:Generated_Source\PSoC5/cyfitter_cfg.c **** 	/* Configure PLL based on settings from Clock DWR */
 262:Generated_Source\PSoC5/cyfitter_cfg.c **** 	CY_SET_XTND_REG16((void CYFAR *)(CYREG_FASTCLK_PLL_P), 0x0008u);
 263:Generated_Source\PSoC5/cyfitter_cfg.c **** 	CY_SET_XTND_REG16((void CYFAR *)(CYREG_FASTCLK_PLL_CFG0), 0x1251u);
 264:Generated_Source\PSoC5/cyfitter_cfg.c **** 	/* Wait up to 250us for the PLL to lock */
 265:Generated_Source\PSoC5/cyfitter_cfg.c **** 	pllLock = 0u;
 266:Generated_Source\PSoC5/cyfitter_cfg.c **** 	for (timeout = 250u / 10u; (timeout > 0u) && (pllLock != 0x03u); timeout--)
 267:Generated_Source\PSoC5/cyfitter_cfg.c **** 	{ 
 268:Generated_Source\PSoC5/cyfitter_cfg.c **** 		pllLock = 0x03u & ((uint8)((uint8)pllLock << 1) | ((CY_GET_XTND_REG8((void CYFAR *)CYREG_FASTCLK_
 269:Generated_Source\PSoC5/cyfitter_cfg.c **** 		CyDelayCycles(10u * 48u); /* Delay 10us based on 48MHz clock */
 270:Generated_Source\PSoC5/cyfitter_cfg.c **** 	}
 271:Generated_Source\PSoC5/cyfitter_cfg.c **** 	/* If we ran out of time the PLL didn't lock so go to the error function */
 272:Generated_Source\PSoC5/cyfitter_cfg.c **** 	if (timeout == 0u)
 273:Generated_Source\PSoC5/cyfitter_cfg.c **** 	{
 274:Generated_Source\PSoC5/cyfitter_cfg.c **** 		CyClockStartupError(CYCLOCKSTART_PLL_ERROR);
 275:Generated_Source\PSoC5/cyfitter_cfg.c **** 	}
 276:Generated_Source\PSoC5/cyfitter_cfg.c **** 
 277:Generated_Source\PSoC5/cyfitter_cfg.c **** 	/* Configure Bus/Master Clock based on settings from Clock DWR */
 278:Generated_Source\PSoC5/cyfitter_cfg.c **** 	CY_SET_XTND_REG16((void CYFAR *)(CYREG_CLKDIST_MSTR0), 0x0100u);
 279:Generated_Source\PSoC5/cyfitter_cfg.c **** 	CY_SET_XTND_REG8((void CYFAR *)(CYREG_CLKDIST_MSTR0), 0x07u);
 280:Generated_Source\PSoC5/cyfitter_cfg.c **** 	CY_SET_XTND_REG8((void CYFAR *)(CYREG_CLKDIST_BCFG0), 0x00u);
 281:Generated_Source\PSoC5/cyfitter_cfg.c **** 	CY_SET_XTND_REG8((void CYFAR *)(CYREG_CLKDIST_BCFG2), 0x48u);
 282:Generated_Source\PSoC5/cyfitter_cfg.c **** 	CY_SET_XTND_REG8((void CYFAR *)(CYREG_CLKDIST_MSTR0), 0x00u);
 283:Generated_Source\PSoC5/cyfitter_cfg.c **** 	CY_SET_XTND_REG8((void CYFAR *)(CYREG_CLKDIST_LD), 0x02u);
 284:Generated_Source\PSoC5/cyfitter_cfg.c **** 	CY_SET_XTND_REG8((void CYFAR *)(CYREG_CLKDIST_DLY1), 0x04u);
 285:Generated_Source\PSoC5/cyfitter_cfg.c **** 
 286:Generated_Source\PSoC5/cyfitter_cfg.c **** 	CY_SET_XTND_REG8((void CYFAR *)(CYREG_PM_ACT_CFG2), ((CY_GET_XTND_REG8((void CYFAR *)CYREG_PM_ACT_
 287:Generated_Source\PSoC5/cyfitter_cfg.c **** 	CY_SET_XTND_REG8((void CYFAR *)(CYREG_PM_ACT_CFG1), ((CY_GET_XTND_REG8((void CYFAR *)CYREG_PM_ACT_
 288:Generated_Source\PSoC5/cyfitter_cfg.c **** 	CY_SET_XTND_REG8((void CYFAR *)(CYREG_PM_ACT_CFG0), ((CY_GET_XTND_REG8((void CYFAR *)CYREG_PM_ACT_
 289:Generated_Source\PSoC5/cyfitter_cfg.c **** }
 290:Generated_Source\PSoC5/cyfitter_cfg.c **** 
 291:Generated_Source\PSoC5/cyfitter_cfg.c **** 
 292:Generated_Source\PSoC5/cyfitter_cfg.c **** /* Analog API Functions */
 293:Generated_Source\PSoC5/cyfitter_cfg.c **** 
 294:Generated_Source\PSoC5/cyfitter_cfg.c **** 
 295:Generated_Source\PSoC5/cyfitter_cfg.c **** /*******************************************************************************
 296:Generated_Source\PSoC5/cyfitter_cfg.c **** * Function Name: AnalogSetDefault
 297:Generated_Source\PSoC5/cyfitter_cfg.c **** ********************************************************************************
 298:Generated_Source\PSoC5/cyfitter_cfg.c **** *
 299:Generated_Source\PSoC5/cyfitter_cfg.c **** * Summary:
 300:Generated_Source\PSoC5/cyfitter_cfg.c **** *  Sets up the analog portions of the chip to default values based on chip
 301:Generated_Source\PSoC5/cyfitter_cfg.c **** *  configuration options from the project.
 302:Generated_Source\PSoC5/cyfitter_cfg.c **** *
ARM GAS  C:\Users\sinow\AppData\Local\Temp\ccf87WsY.s 			page 9


 303:Generated_Source\PSoC5/cyfitter_cfg.c **** * Parameters:
 304:Generated_Source\PSoC5/cyfitter_cfg.c **** *  void
 305:Generated_Source\PSoC5/cyfitter_cfg.c **** *
 306:Generated_Source\PSoC5/cyfitter_cfg.c **** * Return:
 307:Generated_Source\PSoC5/cyfitter_cfg.c **** *  void
 308:Generated_Source\PSoC5/cyfitter_cfg.c **** *
 309:Generated_Source\PSoC5/cyfitter_cfg.c **** *******************************************************************************/
 310:Generated_Source\PSoC5/cyfitter_cfg.c **** static void AnalogSetDefault(void);
 311:Generated_Source\PSoC5/cyfitter_cfg.c **** static void AnalogSetDefault(void)
 312:Generated_Source\PSoC5/cyfitter_cfg.c **** {
 150              		.loc 1 312 0
 151              		.cfi_startproc
 152              		@ args = 0, pretend = 0, frame = 0
 153              		@ frame_needed = 0, uses_anonymous_args = 0
 154 0000 F8B5     		push	{r3, r4, r5, r6, r7, lr}
 155              		.cfi_def_cfa_offset 24
 156              		.cfi_offset 3, -24
 157              		.cfi_offset 4, -20
 158              		.cfi_offset 5, -16
 159              		.cfi_offset 6, -12
 160              		.cfi_offset 7, -8
 161              		.cfi_offset 14, -4
 313:Generated_Source\PSoC5/cyfitter_cfg.c **** 	uint8 bg_xover_inl_trim = CY_GET_XTND_REG8((void CYFAR *)(CYREG_FLSHID_MFG_CFG_BG_XOVER_INL_TRIM +
 162              		.loc 1 313 0
 163 0002 244B     		ldr	r3, .L13
 164 0004 1B78     		ldrb	r3, [r3]	@ zero_extendqisi2
 165 0006 DBB2     		uxtb	r3, r3
 166              	.LVL15:
 314:Generated_Source\PSoC5/cyfitter_cfg.c **** 	uint8 cr4 = CY_GET_XTND_REG8((void CYFAR *)(CYREG_RESET_CR4));
 167              		.loc 1 314 0
 168 0008 234E     		ldr	r6, .L13+4
 169 000a 3478     		ldrb	r4, [r6]	@ zero_extendqisi2
 170 000c E4B2     		uxtb	r4, r4
 171              	.LVL16:
 315:Generated_Source\PSoC5/cyfitter_cfg.c **** 	uint8 cr5 = CY_GET_XTND_REG8((void CYFAR *)(CYREG_RESET_CR5));
 172              		.loc 1 315 0
 173 000e 234F     		ldr	r7, .L13+8
 174 0010 3D78     		ldrb	r5, [r7]	@ zero_extendqisi2
 175 0012 EDB2     		uxtb	r5, r5
 176              	.LVL17:
 316:Generated_Source\PSoC5/cyfitter_cfg.c **** 	CY_SET_XTND_REG8((void CYFAR *)(CYREG_BG_DFT0), (bg_xover_inl_trim & 0x07u));
 177              		.loc 1 316 0
 178 0014 03F00701 		and	r1, r3, #7
 179 0018 214A     		ldr	r2, .L13+12
 180 001a 1170     		strb	r1, [r2]
 317:Generated_Source\PSoC5/cyfitter_cfg.c **** 	CY_SET_XTND_REG8((void CYFAR *)(CYREG_BG_DFT1), ((bg_xover_inl_trim >> 4) & 0x0Fu));
 181              		.loc 1 317 0
 182 001c 1B09     		lsrs	r3, r3, #4
 183              	.LVL18:
 184 001e 0132     		adds	r2, r2, #1
 185 0020 1370     		strb	r3, [r2]
 318:Generated_Source\PSoC5/cyfitter_cfg.c **** 	/* Disable PRES while setting up SAR voltage reference */
 319:Generated_Source\PSoC5/cyfitter_cfg.c **** 	CY_SET_XTND_REG8((void CYFAR *)(CYREG_RESET_CR4), (cr4 | 0x03u));
 186              		.loc 1 319 0
 187 0022 44F00303 		orr	r3, r4, #3
 188 0026 3370     		strb	r3, [r6]
 320:Generated_Source\PSoC5/cyfitter_cfg.c **** 	CY_SET_XTND_REG8((void CYFAR *)(CYREG_RESET_CR5), (cr5 | 0x03u));
ARM GAS  C:\Users\sinow\AppData\Local\Temp\ccf87WsY.s 			page 10


 189              		.loc 1 320 0
 190 0028 45F00303 		orr	r3, r5, #3
 191 002c 3B70     		strb	r3, [r7]
 321:Generated_Source\PSoC5/cyfitter_cfg.c **** 	CY_SET_XTND_REG8((void CYFAR *)CYREG_PRT0_AG, 0x14u);
 192              		.loc 1 321 0
 193 002e 1422     		movs	r2, #20
 194 0030 1C4B     		ldr	r3, .L13+16
 195 0032 1A70     		strb	r2, [r3]
 322:Generated_Source\PSoC5/cyfitter_cfg.c **** 	CY_SET_XTND_REG8((void CYFAR *)CYREG_PRT6_AG, 0x10u);
 196              		.loc 1 322 0
 197 0034 1021     		movs	r1, #16
 198 0036 6033     		adds	r3, r3, #96
 199 0038 1970     		strb	r1, [r3]
 323:Generated_Source\PSoC5/cyfitter_cfg.c **** 	CY_SET_XTND_REG8((void CYFAR *)CYREG_CAPSL_CFG0, 0x00u);
 200              		.loc 1 323 0
 201 003a 0022     		movs	r2, #0
 202 003c 03F20373 		addw	r3, r3, #1795
 203 0040 1A70     		strb	r2, [r3]
 324:Generated_Source\PSoC5/cyfitter_cfg.c **** 	CY_SET_XTND_REG8((void CYFAR *)CYREG_SAR0_CSR1, 0x40u);
 204              		.loc 1 324 0
 205 0042 4022     		movs	r2, #64
 206 0044 9133     		adds	r3, r3, #145
 207 0046 1A70     		strb	r2, [r3]
 325:Generated_Source\PSoC5/cyfitter_cfg.c **** 	CY_SET_XTND_REG8((void CYFAR *)CYREG_SAR0_CSR3, 0x40u);
 208              		.loc 1 325 0
 209 0048 0233     		adds	r3, r3, #2
 210 004a 1A70     		strb	r2, [r3]
 326:Generated_Source\PSoC5/cyfitter_cfg.c **** 	CY_SET_XTND_REG8((void CYFAR *)CYREG_SAR1_CSR1, 0x40u);
 211              		.loc 1 326 0
 212 004c 0633     		adds	r3, r3, #6
 213 004e 1A70     		strb	r2, [r3]
 327:Generated_Source\PSoC5/cyfitter_cfg.c **** 	CY_SET_XTND_REG8((void CYFAR *)CYREG_SAR1_CSR3, 0x40u);
 214              		.loc 1 327 0
 215 0050 0233     		adds	r3, r3, #2
 216 0052 1A70     		strb	r2, [r3]
 328:Generated_Source\PSoC5/cyfitter_cfg.c **** 	CY_SET_XTND_REG8((void CYFAR *)CYREG_CMP3_SW3, 0x20u);
 217              		.loc 1 328 0
 218 0054 2023     		movs	r3, #32
 219 0056 1448     		ldr	r0, .L13+20
 220 0058 0370     		strb	r3, [r0]
 329:Generated_Source\PSoC5/cyfitter_cfg.c **** 	CY_SET_XTND_REG8((void CYFAR *)CYREG_DSM0_SW0, 0x10u);
 221              		.loc 1 329 0
 222 005a 2530     		adds	r0, r0, #37
 223 005c 0170     		strb	r1, [r0]
 330:Generated_Source\PSoC5/cyfitter_cfg.c **** 	CY_SET_XTND_REG8((void CYFAR *)CYREG_SAR0_SW0, 0x40u);
 224              		.loc 1 330 0
 225 005e 1349     		ldr	r1, .L13+24
 226 0060 0A70     		strb	r2, [r1]
 331:Generated_Source\PSoC5/cyfitter_cfg.c **** 	CY_SET_XTND_REG8((void CYFAR *)CYREG_SAR0_SW3, 0x20u);
 227              		.loc 1 331 0
 228 0062 134A     		ldr	r2, .L13+28
 229 0064 1370     		strb	r3, [r2]
 332:Generated_Source\PSoC5/cyfitter_cfg.c **** 	CY_SET_XTND_REG8((void CYFAR *)CYREG_SAR1_SW0, 0x20u);
 230              		.loc 1 332 0
 231 0066 0532     		adds	r2, r2, #5
 232 0068 1370     		strb	r3, [r2]
 333:Generated_Source\PSoC5/cyfitter_cfg.c **** 	CY_SET_XTND_REG8((void CYFAR *)CYREG_SAR1_SW3, 0x20u);
ARM GAS  C:\Users\sinow\AppData\Local\Temp\ccf87WsY.s 			page 11


 233              		.loc 1 333 0
 234 006a 0332     		adds	r2, r2, #3
 235 006c 1370     		strb	r3, [r2]
 334:Generated_Source\PSoC5/cyfitter_cfg.c **** 	CY_SET_XTND_REG16((void CYFAR *)CYREG_OPAMP2_MX, 0x0110u);
 236              		.loc 1 334 0
 237 006e 4FF48871 		mov	r1, #272
 238 0072 1932     		adds	r2, r2, #25
 239 0074 1180     		strh	r1, [r2]	@ movhi
 335:Generated_Source\PSoC5/cyfitter_cfg.c **** 	CY_SET_XTND_REG8((void CYFAR *)CYREG_BUS_SW0, 0x20u);
 240              		.loc 1 335 0
 241 0076 1432     		adds	r2, r2, #20
 242 0078 1370     		strb	r3, [r2]
 336:Generated_Source\PSoC5/cyfitter_cfg.c **** 	CY_SET_XTND_REG8((void CYFAR *)CYREG_BUS_SW3, 0x01u);
 243              		.loc 1 336 0
 244 007a 0122     		movs	r2, #1
 245 007c 0D4B     		ldr	r3, .L13+32
 246 007e 1A70     		strb	r2, [r3]
 337:Generated_Source\PSoC5/cyfitter_cfg.c **** 	CyDelayUs(10u); /* Allow vref to settle before re-enabling PRES */
 247              		.loc 1 337 0
 248 0080 0A20     		movs	r0, #10
 249 0082 FFF7FEFF 		bl	CyDelayUs
 250              	.LVL19:
 338:Generated_Source\PSoC5/cyfitter_cfg.c **** 	CY_SET_XTND_REG8((void CYFAR *)(CYREG_RESET_CR5), (cr5));
 251              		.loc 1 338 0
 252 0086 3D70     		strb	r5, [r7]
 339:Generated_Source\PSoC5/cyfitter_cfg.c **** 	CY_SET_XTND_REG8((void CYFAR *)(CYREG_RESET_CR4), (cr4));
 253              		.loc 1 339 0
 254 0088 3470     		strb	r4, [r6]
 340:Generated_Source\PSoC5/cyfitter_cfg.c **** 	CY_SET_XTND_REG8((void CYFAR *)CYREG_PUMP_CR0, 0x44u);
 255              		.loc 1 340 0
 256 008a 4422     		movs	r2, #68
 257 008c 0A4B     		ldr	r3, .L13+36
 258 008e 1A70     		strb	r2, [r3]
 259 0090 F8BD     		pop	{r3, r4, r5, r6, r7, pc}
 260              	.LVL20:
 261              	.L14:
 262 0092 00BF     		.align	2
 263              	.L13:
 264 0094 CF010049 		.word	1224737231
 265 0098 F8460040 		.word	1073759992
 266 009c F9460040 		.word	1073759993
 267 00a0 6E580040 		.word	1073764462
 268 00a4 0D510040 		.word	1073762573
 269 00a8 DB5A0040 		.word	1073765083
 270 00ac 205B0040 		.word	1073765152
 271 00b0 235B0040 		.word	1073765155
 272 00b4 5B5B0040 		.word	1073765211
 273 00b8 76580040 		.word	1073764470
 274              		.cfi_endproc
 275              	.LFE6:
 276              		.size	AnalogSetDefault, .-AnalogSetDefault
 277              		.section	.text.CYCONFIGCPY,"ax",%progbits
 278              		.align	2
 279              		.thumb
 280              		.thumb_func
 281              		.type	CYCONFIGCPY, %function
 282              	CYCONFIGCPY:
ARM GAS  C:\Users\sinow\AppData\Local\Temp\ccf87WsY.s 			page 12


 283              	.LFB1:
  85:Generated_Source\PSoC5/cyfitter_cfg.c **** 	(void)memcpy(dest, src, n);
 284              		.loc 1 85 0
 285              		.cfi_startproc
 286              		@ args = 0, pretend = 0, frame = 0
 287              		@ frame_needed = 0, uses_anonymous_args = 0
 288              	.LVL21:
 289 0000 08B5     		push	{r3, lr}
 290              		.cfi_def_cfa_offset 8
 291              		.cfi_offset 3, -8
 292              		.cfi_offset 14, -4
  86:Generated_Source\PSoC5/cyfitter_cfg.c **** }
 293              		.loc 1 86 0
 294 0002 FFF7FEFF 		bl	memcpy
 295              	.LVL22:
 296 0006 08BD     		pop	{r3, pc}
 297              		.cfi_endproc
 298              	.LFE1:
 299              		.size	CYCONFIGCPY, .-CYCONFIGCPY
 300              		.section	.text.ClockSetup,"ax",%progbits
 301              		.align	2
 302              		.thumb
 303              		.thumb_func
 304              		.type	ClockSetup, %function
 305              	ClockSetup:
 306              	.LFB5:
 237:Generated_Source\PSoC5/cyfitter_cfg.c **** 	uint32 timeout;
 307              		.loc 1 237 0
 308              		.cfi_startproc
 309              		@ args = 0, pretend = 0, frame = 0
 310              		@ frame_needed = 0, uses_anonymous_args = 0
 311 0000 38B5     		push	{r3, r4, r5, lr}
 312              		.cfi_def_cfa_offset 16
 313              		.cfi_offset 3, -16
 314              		.cfi_offset 4, -12
 315              		.cfi_offset 5, -8
 316              		.cfi_offset 14, -4
 243:Generated_Source\PSoC5/cyfitter_cfg.c **** 	CY_SET_XTND_REG8((void CYFAR *)(CYREG_CLKDIST_DCFG0_CFG0 + 0x2u), 0x50u);
 317              		.loc 1 243 0
 318 0002 0024     		movs	r4, #0
 319 0004 314B     		ldr	r3, .L23
 320 0006 1C80     		strh	r4, [r3]	@ movhi
 244:Generated_Source\PSoC5/cyfitter_cfg.c **** 	CY_SET_XTND_REG16((void CYFAR *)(CYREG_CLKDIST_DCFG1_CFG0), 0x0001u);
 321              		.loc 1 244 0
 322 0008 5022     		movs	r2, #80
 323 000a 0233     		adds	r3, r3, #2
 324 000c 1A70     		strb	r2, [r3]
 245:Generated_Source\PSoC5/cyfitter_cfg.c **** 	CY_SET_XTND_REG8((void CYFAR *)(CYREG_CLKDIST_DCFG1_CFG0 + 0x2u), 0x18u);
 325              		.loc 1 245 0
 326 000e 0122     		movs	r2, #1
 327 0010 0233     		adds	r3, r3, #2
 328 0012 1A80     		strh	r2, [r3]	@ movhi
 246:Generated_Source\PSoC5/cyfitter_cfg.c **** 	CY_SET_XTND_REG16((void CYFAR *)(CYREG_CLKDIST_DCFG2_CFG0), 0x000Bu);
 329              		.loc 1 246 0
 330 0014 1823     		movs	r3, #24
 331 0016 2E4A     		ldr	r2, .L23+4
 332 0018 1370     		strb	r3, [r2]
ARM GAS  C:\Users\sinow\AppData\Local\Temp\ccf87WsY.s 			page 13


 247:Generated_Source\PSoC5/cyfitter_cfg.c **** 	CY_SET_XTND_REG8((void CYFAR *)(CYREG_CLKDIST_DCFG2_CFG0 + 0x2u), 0x18u);
 333              		.loc 1 247 0
 334 001a 0B21     		movs	r1, #11
 335 001c 0232     		adds	r2, r2, #2
 336 001e 1180     		strh	r1, [r2]	@ movhi
 248:Generated_Source\PSoC5/cyfitter_cfg.c **** 
 337              		.loc 1 248 0
 338 0020 0232     		adds	r2, r2, #2
 339 0022 1370     		strb	r3, [r2]
 251:Generated_Source\PSoC5/cyfitter_cfg.c **** 
 340              		.loc 1 251 0
 341 0024 0422     		movs	r2, #4
 342 0026 2B49     		ldr	r1, .L23+8
 343 0028 2B48     		ldr	r0, .L23+12
 344 002a FFF7FEFF 		bl	CYCONFIGCPY
 345              	.LVL23:
 254:Generated_Source\PSoC5/cyfitter_cfg.c **** 	CY_SET_XTND_REG8((void CYFAR *)(CYREG_CLKDIST_CR), 0x08u);
 346              		.loc 1 254 0
 347 002e 0222     		movs	r2, #2
 348 0030 2A4B     		ldr	r3, .L23+16
 349 0032 1A70     		strb	r2, [r3]
 255:Generated_Source\PSoC5/cyfitter_cfg.c **** 
 350              		.loc 1 255 0
 351 0034 0822     		movs	r2, #8
 352 0036 4FF04023 		mov	r3, #1073758208
 353 003a 1A70     		strb	r2, [r3]
 258:Generated_Source\PSoC5/cyfitter_cfg.c **** 	CY_SET_XTND_REG8((void CYFAR *)(CYREG_IMO_TR1), (CY_GET_XTND_REG8((void CYFAR *)CYREG_FLSHID_CUST_
 354              		.loc 1 258 0
 355 003c 0321     		movs	r1, #3
 356 003e 03F50073 		add	r3, r3, #512
 357 0042 1970     		strb	r1, [r3]
 259:Generated_Source\PSoC5/cyfitter_cfg.c **** 
 358              		.loc 1 259 0
 359 0044 264B     		ldr	r3, .L23+20
 360 0046 1B78     		ldrb	r3, [r3]	@ zero_extendqisi2
 361 0048 DBB2     		uxtb	r3, r3
 362 004a 2649     		ldr	r1, .L23+24
 363 004c 0B70     		strb	r3, [r1]
 262:Generated_Source\PSoC5/cyfitter_cfg.c **** 	CY_SET_XTND_REG16((void CYFAR *)(CYREG_FASTCLK_PLL_CFG0), 0x1251u);
 364              		.loc 1 262 0
 365 004e 264B     		ldr	r3, .L23+28
 366 0050 1A80     		strh	r2, [r3]	@ movhi
 263:Generated_Source\PSoC5/cyfitter_cfg.c **** 	/* Wait up to 250us for the PLL to lock */
 367              		.loc 1 263 0
 368 0052 41F25122 		movw	r2, #4689
 369 0056 023B     		subs	r3, r3, #2
 370 0058 1A80     		strh	r2, [r3]	@ movhi
 371              	.LVL24:
 266:Generated_Source\PSoC5/cyfitter_cfg.c **** 	{ 
 372              		.loc 1 266 0
 373 005a 1925     		movs	r5, #25
 374 005c 0CE0     		b	.L18
 375              	.LVL25:
 376              	.L20:
 268:Generated_Source\PSoC5/cyfitter_cfg.c **** 		CyDelayCycles(10u * 48u); /* Delay 10us based on 48MHz clock */
 377              		.loc 1 268 0 discriminator 4
 378 005e 234B     		ldr	r3, .L23+32
ARM GAS  C:\Users\sinow\AppData\Local\Temp\ccf87WsY.s 			page 14


 379 0060 1B78     		ldrb	r3, [r3]	@ zero_extendqisi2
 380 0062 03F00103 		and	r3, r3, #1
 381 0066 43EA4404 		orr	r4, r3, r4, lsl #1
 382              	.LVL26:
 383 006a 04F00304 		and	r4, r4, #3
 384              	.LVL27:
 269:Generated_Source\PSoC5/cyfitter_cfg.c **** 	}
 385              		.loc 1 269 0 discriminator 4
 386 006e 4FF4F070 		mov	r0, #480
 387 0072 FFF7FEFF 		bl	CyDelayCycles
 388              	.LVL28:
 266:Generated_Source\PSoC5/cyfitter_cfg.c **** 	{ 
 389              		.loc 1 266 0 discriminator 4
 390 0076 013D     		subs	r5, r5, #1
 391              	.LVL29:
 392              	.L18:
 266:Generated_Source\PSoC5/cyfitter_cfg.c **** 	{ 
 393              		.loc 1 266 0 is_stmt 0 discriminator 1
 394 0078 0DB1     		cbz	r5, .L19
 266:Generated_Source\PSoC5/cyfitter_cfg.c **** 	{ 
 395              		.loc 1 266 0 discriminator 3
 396 007a 032C     		cmp	r4, #3
 397 007c EFD1     		bne	.L20
 398              	.L19:
 272:Generated_Source\PSoC5/cyfitter_cfg.c **** 	{
 399              		.loc 1 272 0 is_stmt 1
 400 007e 15B9     		cbnz	r5, .L21
 274:Generated_Source\PSoC5/cyfitter_cfg.c **** 	}
 401              		.loc 1 274 0
 402 0080 0320     		movs	r0, #3
 403 0082 FFF7FEFF 		bl	CyClockStartupError
 404              	.LVL30:
 405              	.L21:
 278:Generated_Source\PSoC5/cyfitter_cfg.c **** 	CY_SET_XTND_REG8((void CYFAR *)(CYREG_CLKDIST_MSTR0), 0x07u);
 406              		.loc 1 278 0
 407 0086 1A4B     		ldr	r3, .L23+36
 408 0088 4FF48072 		mov	r2, #256
 409 008c 1A80     		strh	r2, [r3]	@ movhi
 279:Generated_Source\PSoC5/cyfitter_cfg.c **** 	CY_SET_XTND_REG8((void CYFAR *)(CYREG_CLKDIST_BCFG0), 0x00u);
 410              		.loc 1 279 0
 411 008e 0722     		movs	r2, #7
 412 0090 1A70     		strb	r2, [r3]
 280:Generated_Source\PSoC5/cyfitter_cfg.c **** 	CY_SET_XTND_REG8((void CYFAR *)(CYREG_CLKDIST_BCFG2), 0x48u);
 413              		.loc 1 280 0
 414 0092 0022     		movs	r2, #0
 415 0094 1749     		ldr	r1, .L23+40
 416 0096 0A70     		strb	r2, [r1]
 281:Generated_Source\PSoC5/cyfitter_cfg.c **** 	CY_SET_XTND_REG8((void CYFAR *)(CYREG_CLKDIST_MSTR0), 0x00u);
 417              		.loc 1 281 0
 418 0098 4820     		movs	r0, #72
 419 009a 0231     		adds	r1, r1, #2
 420 009c 0870     		strb	r0, [r1]
 282:Generated_Source\PSoC5/cyfitter_cfg.c **** 	CY_SET_XTND_REG8((void CYFAR *)(CYREG_CLKDIST_LD), 0x02u);
 421              		.loc 1 282 0
 422 009e 1A70     		strb	r2, [r3]
 283:Generated_Source\PSoC5/cyfitter_cfg.c **** 	CY_SET_XTND_REG8((void CYFAR *)(CYREG_CLKDIST_DLY1), 0x04u);
 423              		.loc 1 283 0
ARM GAS  C:\Users\sinow\AppData\Local\Temp\ccf87WsY.s 			page 15


 424 00a0 0222     		movs	r2, #2
 425 00a2 033B     		subs	r3, r3, #3
 426 00a4 1A70     		strb	r2, [r3]
 284:Generated_Source\PSoC5/cyfitter_cfg.c **** 
 427              		.loc 1 284 0
 428 00a6 0422     		movs	r2, #4
 429 00a8 0A33     		adds	r3, r3, #10
 430 00aa 1A70     		strb	r2, [r3]
 286:Generated_Source\PSoC5/cyfitter_cfg.c **** 	CY_SET_XTND_REG8((void CYFAR *)(CYREG_PM_ACT_CFG1), ((CY_GET_XTND_REG8((void CYFAR *)CYREG_PM_ACT_
 431              		.loc 1 286 0
 432 00ac 124A     		ldr	r2, .L23+44
 433 00ae 1378     		ldrb	r3, [r2]	@ zero_extendqisi2
 434 00b0 43F00703 		orr	r3, r3, #7
 435 00b4 1370     		strb	r3, [r2]
 287:Generated_Source\PSoC5/cyfitter_cfg.c **** 	CY_SET_XTND_REG8((void CYFAR *)(CYREG_PM_ACT_CFG0), ((CY_GET_XTND_REG8((void CYFAR *)CYREG_PM_ACT_
 436              		.loc 1 287 0
 437 00b6 013A     		subs	r2, r2, #1
 438 00b8 1378     		ldrb	r3, [r2]	@ zero_extendqisi2
 439 00ba 43F00103 		orr	r3, r3, #1
 440 00be 1370     		strb	r3, [r2]
 288:Generated_Source\PSoC5/cyfitter_cfg.c **** }
 441              		.loc 1 288 0
 442 00c0 013A     		subs	r2, r2, #1
 443 00c2 1378     		ldrb	r3, [r2]	@ zero_extendqisi2
 444 00c4 43F08003 		orr	r3, r3, #128
 445 00c8 1370     		strb	r3, [r2]
 446 00ca 38BD     		pop	{r3, r4, r5, pc}
 447              	.LVL31:
 448              	.L24:
 449              		.align	2
 450              	.L23:
 451 00cc 80400040 		.word	1073758336
 452 00d0 86400040 		.word	1073758342
 453 00d4 3C060048 		.word	1207961148
 454 00d8 00410040 		.word	1073758464
 455 00dc 00430040 		.word	1073758976
 456 00e0 08010049 		.word	1224737032
 457 00e4 A1460040 		.word	1073759905
 458 00e8 22420040 		.word	1073758754
 459 00ec 25420040 		.word	1073758757
 460 00f0 04400040 		.word	1073758212
 461 00f4 06400040 		.word	1073758214
 462 00f8 A2430040 		.word	1073759138
 463              		.cfi_endproc
 464              	.LFE5:
 465              		.size	ClockSetup, .-ClockSetup
 466              		.section	.text.SetAnalogRoutingPumps,"ax",%progbits
 467              		.align	2
 468              		.global	SetAnalogRoutingPumps
 469              		.thumb
 470              		.thumb_func
 471              		.type	SetAnalogRoutingPumps, %function
 472              	SetAnalogRoutingPumps:
 473              	.LFB7:
 341:Generated_Source\PSoC5/cyfitter_cfg.c **** }
 342:Generated_Source\PSoC5/cyfitter_cfg.c **** 
 343:Generated_Source\PSoC5/cyfitter_cfg.c **** 
ARM GAS  C:\Users\sinow\AppData\Local\Temp\ccf87WsY.s 			page 16


 344:Generated_Source\PSoC5/cyfitter_cfg.c **** /*******************************************************************************
 345:Generated_Source\PSoC5/cyfitter_cfg.c **** * Function Name: SetAnalogRoutingPumps
 346:Generated_Source\PSoC5/cyfitter_cfg.c **** ********************************************************************************
 347:Generated_Source\PSoC5/cyfitter_cfg.c **** *
 348:Generated_Source\PSoC5/cyfitter_cfg.c **** * Summary:
 349:Generated_Source\PSoC5/cyfitter_cfg.c **** * Enables or disables the analog pumps feeding analog routing switches.
 350:Generated_Source\PSoC5/cyfitter_cfg.c **** * Intended to be called at startup, based on the Vdda system configuration;
 351:Generated_Source\PSoC5/cyfitter_cfg.c **** * may be called during operation when the user informs us that the Vdda voltage
 352:Generated_Source\PSoC5/cyfitter_cfg.c **** * crossed the pump threshold.
 353:Generated_Source\PSoC5/cyfitter_cfg.c **** *
 354:Generated_Source\PSoC5/cyfitter_cfg.c **** * Parameters:
 355:Generated_Source\PSoC5/cyfitter_cfg.c **** *  enabled - 1 to enable the pumps, 0 to disable the pumps
 356:Generated_Source\PSoC5/cyfitter_cfg.c **** *
 357:Generated_Source\PSoC5/cyfitter_cfg.c **** * Return:
 358:Generated_Source\PSoC5/cyfitter_cfg.c **** *  void
 359:Generated_Source\PSoC5/cyfitter_cfg.c **** *
 360:Generated_Source\PSoC5/cyfitter_cfg.c **** *******************************************************************************/
 361:Generated_Source\PSoC5/cyfitter_cfg.c **** void SetAnalogRoutingPumps(uint8 enabled)
 362:Generated_Source\PSoC5/cyfitter_cfg.c **** {
 474              		.loc 1 362 0
 475              		.cfi_startproc
 476              		@ args = 0, pretend = 0, frame = 0
 477              		@ frame_needed = 0, uses_anonymous_args = 0
 478              		@ link register save eliminated.
 479              	.LVL32:
 363:Generated_Source\PSoC5/cyfitter_cfg.c **** 	uint8 regValue = CY_GET_XTND_REG8((void CYFAR *)CYREG_PUMP_CR0);
 480              		.loc 1 363 0
 481 0000 054B     		ldr	r3, .L28
 482 0002 1B78     		ldrb	r3, [r3]	@ zero_extendqisi2
 483 0004 DBB2     		uxtb	r3, r3
 484              	.LVL33:
 364:Generated_Source\PSoC5/cyfitter_cfg.c **** 	if (enabled != 0u)
 485              		.loc 1 364 0
 486 0006 10B1     		cbz	r0, .L26
 365:Generated_Source\PSoC5/cyfitter_cfg.c **** 	{
 366:Generated_Source\PSoC5/cyfitter_cfg.c **** 		regValue |= 0x22u;
 487              		.loc 1 366 0
 488 0008 43F02203 		orr	r3, r3, #34
 489              	.LVL34:
 490 000c 01E0     		b	.L27
 491              	.L26:
 367:Generated_Source\PSoC5/cyfitter_cfg.c **** 	}
 368:Generated_Source\PSoC5/cyfitter_cfg.c **** 	else
 369:Generated_Source\PSoC5/cyfitter_cfg.c **** 	{
 370:Generated_Source\PSoC5/cyfitter_cfg.c **** 		regValue &= (uint8)~0x22u;
 492              		.loc 1 370 0
 493 000e 03F0DD03 		and	r3, r3, #221
 494              	.LVL35:
 495              	.L27:
 371:Generated_Source\PSoC5/cyfitter_cfg.c **** 	}
 372:Generated_Source\PSoC5/cyfitter_cfg.c **** 	CY_SET_XTND_REG8((void CYFAR *)CYREG_PUMP_CR0, regValue);
 496              		.loc 1 372 0
 497 0012 014A     		ldr	r2, .L28
 498 0014 1370     		strb	r3, [r2]
 499 0016 7047     		bx	lr
 500              	.L29:
 501              		.align	2
ARM GAS  C:\Users\sinow\AppData\Local\Temp\ccf87WsY.s 			page 17


 502              	.L28:
 503 0018 76580040 		.word	1073764470
 504              		.cfi_endproc
 505              	.LFE7:
 506              		.size	SetAnalogRoutingPumps, .-SetAnalogRoutingPumps
 507              		.section	.text.ADC_DelSig_1_AMux_Set,"ax",%progbits
 508              		.align	2
 509              		.global	ADC_DelSig_1_AMux_Set
 510              		.thumb
 511              		.thumb_func
 512              		.type	ADC_DelSig_1_AMux_Set, %function
 513              	ADC_DelSig_1_AMux_Set:
 514              	.LFB8:
 373:Generated_Source\PSoC5/cyfitter_cfg.c **** }
 374:Generated_Source\PSoC5/cyfitter_cfg.c **** 
 375:Generated_Source\PSoC5/cyfitter_cfg.c **** 
 376:Generated_Source\PSoC5/cyfitter_cfg.c **** #define CY_AMUX_UNUSED CYREG_BOOST_SR
 377:Generated_Source\PSoC5/cyfitter_cfg.c **** /* This is an implementation detail of the AMux. Code that depends on it may be
 378:Generated_Source\PSoC5/cyfitter_cfg.c ****    incompatible with other versions of PSoC Creator. */
 379:Generated_Source\PSoC5/cyfitter_cfg.c **** uint8 CYXDATA * const CYCODE ADC_DelSig_1_AMux__addrTable[2] = {
 380:Generated_Source\PSoC5/cyfitter_cfg.c **** 	(uint8 CYXDATA *)CYREG_DSM0_SW3, 
 381:Generated_Source\PSoC5/cyfitter_cfg.c **** 	(uint8 CYXDATA *)CY_AMUX_UNUSED, 
 382:Generated_Source\PSoC5/cyfitter_cfg.c **** };
 383:Generated_Source\PSoC5/cyfitter_cfg.c **** 
 384:Generated_Source\PSoC5/cyfitter_cfg.c **** /* This is an implementation detail of the AMux. Code that depends on it may be
 385:Generated_Source\PSoC5/cyfitter_cfg.c ****    incompatible with other versions of PSoC Creator. */
 386:Generated_Source\PSoC5/cyfitter_cfg.c **** const uint8 CYCODE ADC_DelSig_1_AMux__maskTable[2] = {
 387:Generated_Source\PSoC5/cyfitter_cfg.c **** 	0x40u, 
 388:Generated_Source\PSoC5/cyfitter_cfg.c **** 	0x00u, 
 389:Generated_Source\PSoC5/cyfitter_cfg.c **** };
 390:Generated_Source\PSoC5/cyfitter_cfg.c **** 
 391:Generated_Source\PSoC5/cyfitter_cfg.c **** /*******************************************************************************
 392:Generated_Source\PSoC5/cyfitter_cfg.c **** * Function Name: ADC_DelSig_1_AMux_Set
 393:Generated_Source\PSoC5/cyfitter_cfg.c **** ********************************************************************************
 394:Generated_Source\PSoC5/cyfitter_cfg.c **** * Summary:
 395:Generated_Source\PSoC5/cyfitter_cfg.c **** *  This function is used to set a particular channel as active on the AMux.
 396:Generated_Source\PSoC5/cyfitter_cfg.c **** *
 397:Generated_Source\PSoC5/cyfitter_cfg.c **** * Parameters:  
 398:Generated_Source\PSoC5/cyfitter_cfg.c **** *   channel - The mux channel input to set as active
 399:Generated_Source\PSoC5/cyfitter_cfg.c **** *
 400:Generated_Source\PSoC5/cyfitter_cfg.c **** * Return:
 401:Generated_Source\PSoC5/cyfitter_cfg.c **** *   void
 402:Generated_Source\PSoC5/cyfitter_cfg.c **** *
 403:Generated_Source\PSoC5/cyfitter_cfg.c **** *******************************************************************************/
 404:Generated_Source\PSoC5/cyfitter_cfg.c **** void ADC_DelSig_1_AMux_Set(uint8 channel)
 405:Generated_Source\PSoC5/cyfitter_cfg.c **** {
 515              		.loc 1 405 0
 516              		.cfi_startproc
 517              		@ args = 0, pretend = 0, frame = 0
 518              		@ frame_needed = 0, uses_anonymous_args = 0
 519              		@ link register save eliminated.
 520              	.LVL36:
 406:Generated_Source\PSoC5/cyfitter_cfg.c **** 	if (channel < 2)
 521              		.loc 1 406 0
 522 0000 0128     		cmp	r0, #1
 523 0002 07D8     		bhi	.L30
 407:Generated_Source\PSoC5/cyfitter_cfg.c **** 	{
ARM GAS  C:\Users\sinow\AppData\Local\Temp\ccf87WsY.s 			page 18


 408:Generated_Source\PSoC5/cyfitter_cfg.c **** 		*ADC_DelSig_1_AMux__addrTable[channel] |= ADC_DelSig_1_AMux__maskTable[channel];
 524              		.loc 1 408 0
 525 0004 044B     		ldr	r3, .L32
 526 0006 53F82020 		ldr	r2, [r3, r0, lsl #2]
 527 000a 1844     		add	r0, r0, r3
 528              	.LVL37:
 529 000c 017A     		ldrb	r1, [r0, #8]	@ zero_extendqisi2
 530 000e 1378     		ldrb	r3, [r2]	@ zero_extendqisi2
 531 0010 0B43     		orrs	r3, r3, r1
 532 0012 1370     		strb	r3, [r2]
 533              	.L30:
 534 0014 7047     		bx	lr
 535              	.L33:
 536 0016 00BF     		.align	2
 537              	.L32:
 538 0018 00000000 		.word	.LANCHOR0
 539              		.cfi_endproc
 540              	.LFE8:
 541              		.size	ADC_DelSig_1_AMux_Set, .-ADC_DelSig_1_AMux_Set
 542              		.section	.text.ADC_DelSig_1_AMux_Unset,"ax",%progbits
 543              		.align	2
 544              		.global	ADC_DelSig_1_AMux_Unset
 545              		.thumb
 546              		.thumb_func
 547              		.type	ADC_DelSig_1_AMux_Unset, %function
 548              	ADC_DelSig_1_AMux_Unset:
 549              	.LFB9:
 409:Generated_Source\PSoC5/cyfitter_cfg.c **** 	}
 410:Generated_Source\PSoC5/cyfitter_cfg.c **** }
 411:Generated_Source\PSoC5/cyfitter_cfg.c **** 
 412:Generated_Source\PSoC5/cyfitter_cfg.c **** /*******************************************************************************
 413:Generated_Source\PSoC5/cyfitter_cfg.c **** * Function Name: ADC_DelSig_1_AMux_Unset
 414:Generated_Source\PSoC5/cyfitter_cfg.c **** ********************************************************************************
 415:Generated_Source\PSoC5/cyfitter_cfg.c **** * Summary:
 416:Generated_Source\PSoC5/cyfitter_cfg.c **** *  This function is used to clear a particular channel from being active on the
 417:Generated_Source\PSoC5/cyfitter_cfg.c **** *  AMux.
 418:Generated_Source\PSoC5/cyfitter_cfg.c **** *
 419:Generated_Source\PSoC5/cyfitter_cfg.c **** * Parameters:  
 420:Generated_Source\PSoC5/cyfitter_cfg.c **** *   channel - The mux channel input to mark inactive
 421:Generated_Source\PSoC5/cyfitter_cfg.c **** *
 422:Generated_Source\PSoC5/cyfitter_cfg.c **** * Return:
 423:Generated_Source\PSoC5/cyfitter_cfg.c **** *   void
 424:Generated_Source\PSoC5/cyfitter_cfg.c **** *
 425:Generated_Source\PSoC5/cyfitter_cfg.c **** *******************************************************************************/
 426:Generated_Source\PSoC5/cyfitter_cfg.c **** void ADC_DelSig_1_AMux_Unset(uint8 channel)
 427:Generated_Source\PSoC5/cyfitter_cfg.c **** {
 550              		.loc 1 427 0
 551              		.cfi_startproc
 552              		@ args = 0, pretend = 0, frame = 0
 553              		@ frame_needed = 0, uses_anonymous_args = 0
 554              		@ link register save eliminated.
 555              	.LVL38:
 428:Generated_Source\PSoC5/cyfitter_cfg.c **** 	if (channel < 2)
 556              		.loc 1 428 0
 557 0000 0128     		cmp	r0, #1
 558 0002 08D8     		bhi	.L34
 429:Generated_Source\PSoC5/cyfitter_cfg.c **** 	{
ARM GAS  C:\Users\sinow\AppData\Local\Temp\ccf87WsY.s 			page 19


 430:Generated_Source\PSoC5/cyfitter_cfg.c **** 		*ADC_DelSig_1_AMux__addrTable[channel] &= (uint8)~ADC_DelSig_1_AMux__maskTable[channel];
 559              		.loc 1 430 0
 560 0004 044B     		ldr	r3, .L36
 561 0006 53F82020 		ldr	r2, [r3, r0, lsl #2]
 562 000a 1844     		add	r0, r0, r3
 563              	.LVL39:
 564 000c 017A     		ldrb	r1, [r0, #8]	@ zero_extendqisi2
 565 000e 1378     		ldrb	r3, [r2]	@ zero_extendqisi2
 566 0010 23EA0103 		bic	r3, r3, r1
 567 0014 1370     		strb	r3, [r2]
 568              	.L34:
 569 0016 7047     		bx	lr
 570              	.L37:
 571              		.align	2
 572              	.L36:
 573 0018 00000000 		.word	.LANCHOR0
 574              		.cfi_endproc
 575              	.LFE9:
 576              		.size	ADC_DelSig_1_AMux_Unset, .-ADC_DelSig_1_AMux_Unset
 577              		.section	.text.CapSense_CSD_AMuxCH0_Set,"ax",%progbits
 578              		.align	2
 579              		.global	CapSense_CSD_AMuxCH0_Set
 580              		.thumb
 581              		.thumb_func
 582              		.type	CapSense_CSD_AMuxCH0_Set, %function
 583              	CapSense_CSD_AMuxCH0_Set:
 584              	.LFB10:
 431:Generated_Source\PSoC5/cyfitter_cfg.c **** 	}
 432:Generated_Source\PSoC5/cyfitter_cfg.c **** }
 433:Generated_Source\PSoC5/cyfitter_cfg.c **** 
 434:Generated_Source\PSoC5/cyfitter_cfg.c **** /* This is an implementation detail of the AMux. Code that depends on it may be
 435:Generated_Source\PSoC5/cyfitter_cfg.c ****    incompatible with other versions of PSoC Creator. */
 436:Generated_Source\PSoC5/cyfitter_cfg.c **** uint8 CYXDATA * const CYCODE CapSense_CSD_AMuxCH0__addrTable[8] = {
 437:Generated_Source\PSoC5/cyfitter_cfg.c **** 	(uint8 CYXDATA *)CYREG_PRT5_AMUX, 
 438:Generated_Source\PSoC5/cyfitter_cfg.c **** 	(uint8 CYXDATA *)CYREG_PRT5_AMUX, 
 439:Generated_Source\PSoC5/cyfitter_cfg.c **** 	(uint8 CYXDATA *)CYREG_PRT5_AMUX, 
 440:Generated_Source\PSoC5/cyfitter_cfg.c **** 	(uint8 CYXDATA *)CYREG_PRT5_AMUX, 
 441:Generated_Source\PSoC5/cyfitter_cfg.c **** 	(uint8 CYXDATA *)CYREG_PRT5_AMUX, 
 442:Generated_Source\PSoC5/cyfitter_cfg.c **** 	(uint8 CYXDATA *)CYREG_PRT6_AMUX, 
 443:Generated_Source\PSoC5/cyfitter_cfg.c **** 	(uint8 CYXDATA *)CYREG_CMP3_SW3, 
 444:Generated_Source\PSoC5/cyfitter_cfg.c **** 	(uint8 CYXDATA *)CYREG_DAC3_SW3, 
 445:Generated_Source\PSoC5/cyfitter_cfg.c **** };
 446:Generated_Source\PSoC5/cyfitter_cfg.c **** 
 447:Generated_Source\PSoC5/cyfitter_cfg.c **** /* This is an implementation detail of the AMux. Code that depends on it may be
 448:Generated_Source\PSoC5/cyfitter_cfg.c ****    incompatible with other versions of PSoC Creator. */
 449:Generated_Source\PSoC5/cyfitter_cfg.c **** const uint8 CYCODE CapSense_CSD_AMuxCH0__maskTable[8] = {
 450:Generated_Source\PSoC5/cyfitter_cfg.c **** 	0x01u, 
 451:Generated_Source\PSoC5/cyfitter_cfg.c **** 	0x02u, 
 452:Generated_Source\PSoC5/cyfitter_cfg.c **** 	0x04u, 
 453:Generated_Source\PSoC5/cyfitter_cfg.c **** 	0x08u, 
 454:Generated_Source\PSoC5/cyfitter_cfg.c **** 	0x10u, 
 455:Generated_Source\PSoC5/cyfitter_cfg.c **** 	0x10u, 
 456:Generated_Source\PSoC5/cyfitter_cfg.c **** 	0x01u, 
 457:Generated_Source\PSoC5/cyfitter_cfg.c **** 	0x10u, 
 458:Generated_Source\PSoC5/cyfitter_cfg.c **** };
 459:Generated_Source\PSoC5/cyfitter_cfg.c **** 
 460:Generated_Source\PSoC5/cyfitter_cfg.c **** /*******************************************************************************
ARM GAS  C:\Users\sinow\AppData\Local\Temp\ccf87WsY.s 			page 20


 461:Generated_Source\PSoC5/cyfitter_cfg.c **** * Function Name: CapSense_CSD_AMuxCH0_Set
 462:Generated_Source\PSoC5/cyfitter_cfg.c **** ********************************************************************************
 463:Generated_Source\PSoC5/cyfitter_cfg.c **** * Summary:
 464:Generated_Source\PSoC5/cyfitter_cfg.c **** *  This function is used to set a particular channel as active on the AMux.
 465:Generated_Source\PSoC5/cyfitter_cfg.c **** *
 466:Generated_Source\PSoC5/cyfitter_cfg.c **** * Parameters:  
 467:Generated_Source\PSoC5/cyfitter_cfg.c **** *   channel - The mux channel input to set as active
 468:Generated_Source\PSoC5/cyfitter_cfg.c **** *
 469:Generated_Source\PSoC5/cyfitter_cfg.c **** * Return:
 470:Generated_Source\PSoC5/cyfitter_cfg.c **** *   void
 471:Generated_Source\PSoC5/cyfitter_cfg.c **** *
 472:Generated_Source\PSoC5/cyfitter_cfg.c **** *******************************************************************************/
 473:Generated_Source\PSoC5/cyfitter_cfg.c **** void CapSense_CSD_AMuxCH0_Set(uint8 channel)
 474:Generated_Source\PSoC5/cyfitter_cfg.c **** {
 585              		.loc 1 474 0
 586              		.cfi_startproc
 587              		@ args = 0, pretend = 0, frame = 0
 588              		@ frame_needed = 0, uses_anonymous_args = 0
 589              		@ link register save eliminated.
 590              	.LVL40:
 475:Generated_Source\PSoC5/cyfitter_cfg.c **** 	if (channel < 8)
 591              		.loc 1 475 0
 592 0000 0728     		cmp	r0, #7
 593 0002 09D8     		bhi	.L38
 476:Generated_Source\PSoC5/cyfitter_cfg.c **** 	{
 477:Generated_Source\PSoC5/cyfitter_cfg.c **** 		*CapSense_CSD_AMuxCH0__addrTable[channel] |= CapSense_CSD_AMuxCH0__maskTable[channel];
 594              		.loc 1 477 0
 595 0004 054B     		ldr	r3, .L40
 596 0006 03EB8002 		add	r2, r3, r0, lsl #2
 597 000a D268     		ldr	r2, [r2, #12]
 598 000c 1844     		add	r0, r0, r3
 599              	.LVL41:
 600 000e 90F82C10 		ldrb	r1, [r0, #44]	@ zero_extendqisi2
 601 0012 1378     		ldrb	r3, [r2]	@ zero_extendqisi2
 602 0014 0B43     		orrs	r3, r3, r1
 603 0016 1370     		strb	r3, [r2]
 604              	.L38:
 605 0018 7047     		bx	lr
 606              	.L41:
 607 001a 00BF     		.align	2
 608              	.L40:
 609 001c 00000000 		.word	.LANCHOR0
 610              		.cfi_endproc
 611              	.LFE10:
 612              		.size	CapSense_CSD_AMuxCH0_Set, .-CapSense_CSD_AMuxCH0_Set
 613              		.section	.text.CapSense_CSD_AMuxCH0_Unset,"ax",%progbits
 614              		.align	2
 615              		.global	CapSense_CSD_AMuxCH0_Unset
 616              		.thumb
 617              		.thumb_func
 618              		.type	CapSense_CSD_AMuxCH0_Unset, %function
 619              	CapSense_CSD_AMuxCH0_Unset:
 620              	.LFB11:
 478:Generated_Source\PSoC5/cyfitter_cfg.c **** 	}
 479:Generated_Source\PSoC5/cyfitter_cfg.c **** }
 480:Generated_Source\PSoC5/cyfitter_cfg.c **** 
 481:Generated_Source\PSoC5/cyfitter_cfg.c **** /*******************************************************************************
ARM GAS  C:\Users\sinow\AppData\Local\Temp\ccf87WsY.s 			page 21


 482:Generated_Source\PSoC5/cyfitter_cfg.c **** * Function Name: CapSense_CSD_AMuxCH0_Unset
 483:Generated_Source\PSoC5/cyfitter_cfg.c **** ********************************************************************************
 484:Generated_Source\PSoC5/cyfitter_cfg.c **** * Summary:
 485:Generated_Source\PSoC5/cyfitter_cfg.c **** *  This function is used to clear a particular channel from being active on the
 486:Generated_Source\PSoC5/cyfitter_cfg.c **** *  AMux.
 487:Generated_Source\PSoC5/cyfitter_cfg.c **** *
 488:Generated_Source\PSoC5/cyfitter_cfg.c **** * Parameters:  
 489:Generated_Source\PSoC5/cyfitter_cfg.c **** *   channel - The mux channel input to mark inactive
 490:Generated_Source\PSoC5/cyfitter_cfg.c **** *
 491:Generated_Source\PSoC5/cyfitter_cfg.c **** * Return:
 492:Generated_Source\PSoC5/cyfitter_cfg.c **** *   void
 493:Generated_Source\PSoC5/cyfitter_cfg.c **** *
 494:Generated_Source\PSoC5/cyfitter_cfg.c **** *******************************************************************************/
 495:Generated_Source\PSoC5/cyfitter_cfg.c **** void CapSense_CSD_AMuxCH0_Unset(uint8 channel)
 496:Generated_Source\PSoC5/cyfitter_cfg.c **** {
 621              		.loc 1 496 0
 622              		.cfi_startproc
 623              		@ args = 0, pretend = 0, frame = 0
 624              		@ frame_needed = 0, uses_anonymous_args = 0
 625              		@ link register save eliminated.
 626              	.LVL42:
 497:Generated_Source\PSoC5/cyfitter_cfg.c **** 	if (channel < 8)
 627              		.loc 1 497 0
 628 0000 0728     		cmp	r0, #7
 629 0002 0AD8     		bhi	.L42
 498:Generated_Source\PSoC5/cyfitter_cfg.c **** 	{
 499:Generated_Source\PSoC5/cyfitter_cfg.c **** 		*CapSense_CSD_AMuxCH0__addrTable[channel] &= (uint8)~CapSense_CSD_AMuxCH0__maskTable[channel];
 630              		.loc 1 499 0
 631 0004 054B     		ldr	r3, .L44
 632 0006 03EB8002 		add	r2, r3, r0, lsl #2
 633 000a D268     		ldr	r2, [r2, #12]
 634 000c 1844     		add	r0, r0, r3
 635              	.LVL43:
 636 000e 90F82C10 		ldrb	r1, [r0, #44]	@ zero_extendqisi2
 637 0012 1378     		ldrb	r3, [r2]	@ zero_extendqisi2
 638 0014 23EA0103 		bic	r3, r3, r1
 639 0018 1370     		strb	r3, [r2]
 640              	.L42:
 641 001a 7047     		bx	lr
 642              	.L45:
 643              		.align	2
 644              	.L44:
 645 001c 00000000 		.word	.LANCHOR0
 646              		.cfi_endproc
 647              	.LFE11:
 648              		.size	CapSense_CSD_AMuxCH0_Unset, .-CapSense_CSD_AMuxCH0_Unset
 649              		.section	.text.cyfitter_cfg,"ax",%progbits
 650              		.align	2
 651              		.global	cyfitter_cfg
 652              		.thumb
 653              		.thumb_func
 654              		.type	cyfitter_cfg, %function
 655              	cyfitter_cfg:
 656              	.LFB12:
 500:Generated_Source\PSoC5/cyfitter_cfg.c **** 	}
 501:Generated_Source\PSoC5/cyfitter_cfg.c **** }
 502:Generated_Source\PSoC5/cyfitter_cfg.c **** 
ARM GAS  C:\Users\sinow\AppData\Local\Temp\ccf87WsY.s 			page 22


 503:Generated_Source\PSoC5/cyfitter_cfg.c **** 
 504:Generated_Source\PSoC5/cyfitter_cfg.c **** 
 505:Generated_Source\PSoC5/cyfitter_cfg.c **** /*******************************************************************************
 506:Generated_Source\PSoC5/cyfitter_cfg.c **** * Function Name: cyfitter_cfg
 507:Generated_Source\PSoC5/cyfitter_cfg.c **** ********************************************************************************
 508:Generated_Source\PSoC5/cyfitter_cfg.c **** * Summary:
 509:Generated_Source\PSoC5/cyfitter_cfg.c **** *  This function is called by the start-up code for the selected device. It
 510:Generated_Source\PSoC5/cyfitter_cfg.c **** *  performs all of the necessary device configuration based on the design
 511:Generated_Source\PSoC5/cyfitter_cfg.c **** *  settings.  This includes settings from the Design Wide Resources (DWR) such
 512:Generated_Source\PSoC5/cyfitter_cfg.c **** *  as Clocks and Pins as well as any component configuration that is necessary.
 513:Generated_Source\PSoC5/cyfitter_cfg.c **** *
 514:Generated_Source\PSoC5/cyfitter_cfg.c **** * Parameters:
 515:Generated_Source\PSoC5/cyfitter_cfg.c **** *   void
 516:Generated_Source\PSoC5/cyfitter_cfg.c **** *
 517:Generated_Source\PSoC5/cyfitter_cfg.c **** * Return:
 518:Generated_Source\PSoC5/cyfitter_cfg.c **** *   void
 519:Generated_Source\PSoC5/cyfitter_cfg.c **** *
 520:Generated_Source\PSoC5/cyfitter_cfg.c **** *******************************************************************************/
 521:Generated_Source\PSoC5/cyfitter_cfg.c **** 
 522:Generated_Source\PSoC5/cyfitter_cfg.c **** void cyfitter_cfg(void)
 523:Generated_Source\PSoC5/cyfitter_cfg.c **** {
 657              		.loc 1 523 0
 658              		.cfi_startproc
 659              		@ args = 0, pretend = 0, frame = 0
 660              		@ frame_needed = 0, uses_anonymous_args = 0
 661 0000 38B5     		push	{r3, r4, r5, lr}
 662              		.cfi_def_cfa_offset 16
 663              		.cfi_offset 3, -16
 664              		.cfi_offset 4, -12
 665              		.cfi_offset 5, -8
 666              		.cfi_offset 14, -4
 524:Generated_Source\PSoC5/cyfitter_cfg.c **** #ifdef CYGlobalIntDisable
 525:Generated_Source\PSoC5/cyfitter_cfg.c **** 	/* Disable interrupts by default. Let user enable if/when they want. */
 526:Generated_Source\PSoC5/cyfitter_cfg.c **** 	CYGlobalIntDisable
 667              		.loc 1 526 0
 668              		.syntax unified
 669              	@ 526 "Generated_Source\PSoC5\cyfitter_cfg.c" 1
 670 0002 72B6     		CPSID   i
 671              	@ 0 "" 2
 527:Generated_Source\PSoC5/cyfitter_cfg.c **** #endif
 528:Generated_Source\PSoC5/cyfitter_cfg.c **** 
 529:Generated_Source\PSoC5/cyfitter_cfg.c **** 	/* Enable/Disable Debug functionality based on settings from System DWR */
 530:Generated_Source\PSoC5/cyfitter_cfg.c **** 	CY_SET_XTND_REG8((void CYFAR *)CYREG_MLOGIC_DEBUG, (CY_GET_XTND_REG8((void CYFAR *)CYREG_MLOGIC_DE
 672              		.loc 1 530 0
 673              		.thumb
 674              		.syntax unified
 675 0004 424A     		ldr	r2, .L52
 676 0006 1378     		ldrb	r3, [r2]	@ zero_extendqisi2
 677 0008 43F00403 		orr	r3, r3, #4
 678 000c 1370     		strb	r3, [r2]
 679              	.LVL44:
 680              	.LBB3:
 531:Generated_Source\PSoC5/cyfitter_cfg.c **** 
 532:Generated_Source\PSoC5/cyfitter_cfg.c **** 	{
 533:Generated_Source\PSoC5/cyfitter_cfg.c **** 
 534:Generated_Source\PSoC5/cyfitter_cfg.c **** 		CYPACKED typedef struct {
 535:Generated_Source\PSoC5/cyfitter_cfg.c **** 			void CYFAR *address;
ARM GAS  C:\Users\sinow\AppData\Local\Temp\ccf87WsY.s 			page 23


 536:Generated_Source\PSoC5/cyfitter_cfg.c **** 			uint16 size;
 537:Generated_Source\PSoC5/cyfitter_cfg.c **** 		} CYPACKED_ATTR cfg_memset_t;
 538:Generated_Source\PSoC5/cyfitter_cfg.c **** 
 539:Generated_Source\PSoC5/cyfitter_cfg.c **** 
 540:Generated_Source\PSoC5/cyfitter_cfg.c **** 		CYPACKED typedef struct {
 541:Generated_Source\PSoC5/cyfitter_cfg.c **** 			void CYFAR *dest;
 542:Generated_Source\PSoC5/cyfitter_cfg.c **** 			const void CYFAR *src;
 543:Generated_Source\PSoC5/cyfitter_cfg.c **** 			uint16 size;
 544:Generated_Source\PSoC5/cyfitter_cfg.c **** 		} CYPACKED_ATTR cfg_memcpy_t;
 545:Generated_Source\PSoC5/cyfitter_cfg.c **** 
 546:Generated_Source\PSoC5/cyfitter_cfg.c **** 		static const cfg_memset_t CYCODE cfg_memset_list[] = {
 547:Generated_Source\PSoC5/cyfitter_cfg.c **** 			/* address, size */
 548:Generated_Source\PSoC5/cyfitter_cfg.c **** 			{(void CYFAR *)(CYREG_PRT3_DR), 16u},
 549:Generated_Source\PSoC5/cyfitter_cfg.c **** 			{(void CYFAR *)(CYREG_PRT12_DR), 16u},
 550:Generated_Source\PSoC5/cyfitter_cfg.c **** 			{(void CYFAR *)(CYREG_PRT15_DR), 16u},
 551:Generated_Source\PSoC5/cyfitter_cfg.c **** 			{(void CYFAR *)(CYDEV_UCFG_B0_P0_U0_BASE), 640u},
 552:Generated_Source\PSoC5/cyfitter_cfg.c **** 			{(void CYFAR *)(CYDEV_UCFG_B0_P1_ROUTE_BASE), 3328u},
 553:Generated_Source\PSoC5/cyfitter_cfg.c **** 			{(void CYFAR *)(CYDEV_UCFG_B1_P2_U0_BASE), 2048u},
 554:Generated_Source\PSoC5/cyfitter_cfg.c **** 			{(void CYFAR *)(CYDEV_UCFG_DSI0_BASE), 2560u},
 555:Generated_Source\PSoC5/cyfitter_cfg.c **** 			{(void CYFAR *)(CYDEV_UCFG_DSI12_BASE), 512u},
 556:Generated_Source\PSoC5/cyfitter_cfg.c **** 			{(void CYFAR *)(CYREG_BCTL0_MDCLK_EN), 32u},
 557:Generated_Source\PSoC5/cyfitter_cfg.c **** 		};
 558:Generated_Source\PSoC5/cyfitter_cfg.c **** 
 559:Generated_Source\PSoC5/cyfitter_cfg.c **** 		static const cfg_memcpy_t CYCODE cfg_memcpy_list [] = {
 560:Generated_Source\PSoC5/cyfitter_cfg.c **** 			/* dest, src, size */
 561:Generated_Source\PSoC5/cyfitter_cfg.c **** 			{(void CYFAR *)(CYDEV_UCFG_B0_P1_U1_BASE), BS_UDB_1_4_0_CONFIG_VAL, 128u},
 562:Generated_Source\PSoC5/cyfitter_cfg.c **** 		};
 563:Generated_Source\PSoC5/cyfitter_cfg.c **** 
 564:Generated_Source\PSoC5/cyfitter_cfg.c **** 		uint8 CYDATA i;
 565:Generated_Source\PSoC5/cyfitter_cfg.c **** 
 566:Generated_Source\PSoC5/cyfitter_cfg.c **** 		/* Zero out critical memory blocks before beginning configuration */
 567:Generated_Source\PSoC5/cyfitter_cfg.c **** 		for (i = 0u; i < (sizeof(cfg_memset_list)/sizeof(cfg_memset_list[0])); i++)
 681              		.loc 1 567 0
 682 000e 0024     		movs	r4, #0
 683 0010 0BE0     		b	.L47
 684              	.LVL45:
 685              	.L48:
 686              	.LBB4:
 568:Generated_Source\PSoC5/cyfitter_cfg.c **** 		{
 569:Generated_Source\PSoC5/cyfitter_cfg.c **** 			const cfg_memset_t CYCODE * CYDATA ms = &cfg_memset_list[i];
 570:Generated_Source\PSoC5/cyfitter_cfg.c **** 			CYMEMZERO(ms->address, (size_t)(uint32)(ms->size));
 687              		.loc 1 570 0 discriminator 3
 688 0012 4048     		ldr	r0, .L52+4
 689 0014 6300     		lsls	r3, r4, #1
 690 0016 1A19     		adds	r2, r3, r4
 691 0018 5100     		lsls	r1, r2, #1
 692 001a 0144     		add	r1, r1, r0
 693 001c 0A46     		mov	r2, r1
 694 001e 098F     		ldrh	r1, [r1, #56]
 695 0020 506B     		ldr	r0, [r2, #52]	@ unaligned
 696 0022 FFF7FEFF 		bl	CYMEMZERO
 697              	.LVL46:
 698              	.LBE4:
 567:Generated_Source\PSoC5/cyfitter_cfg.c **** 		{
 699              		.loc 1 567 0 discriminator 3
 700 0026 0134     		adds	r4, r4, #1
 701              	.LVL47:
ARM GAS  C:\Users\sinow\AppData\Local\Temp\ccf87WsY.s 			page 24


 702 0028 E4B2     		uxtb	r4, r4
 703              	.LVL48:
 704              	.L47:
 567:Generated_Source\PSoC5/cyfitter_cfg.c **** 		{
 705              		.loc 1 567 0 is_stmt 0 discriminator 1
 706 002a 082C     		cmp	r4, #8
 707 002c F1D9     		bls	.L48
 708 002e 0024     		movs	r4, #0
 709              	.LVL49:
 710 0030 0BE0     		b	.L49
 711              	.LVL50:
 712              	.L50:
 713              	.LBB5:
 571:Generated_Source\PSoC5/cyfitter_cfg.c **** 		}
 572:Generated_Source\PSoC5/cyfitter_cfg.c **** 
 573:Generated_Source\PSoC5/cyfitter_cfg.c **** 		/* Copy device configuration data into registers */
 574:Generated_Source\PSoC5/cyfitter_cfg.c **** 		for (i = 0u; i < (sizeof(cfg_memcpy_list)/sizeof(cfg_memcpy_list[0])); i++)
 575:Generated_Source\PSoC5/cyfitter_cfg.c **** 		{
 576:Generated_Source\PSoC5/cyfitter_cfg.c **** 			const cfg_memcpy_t CYCODE * CYDATA mc = &cfg_memcpy_list[i];
 577:Generated_Source\PSoC5/cyfitter_cfg.c **** 			void * CYDATA destPtr = mc->dest;
 714              		.loc 1 577 0 is_stmt 1 discriminator 3
 715 0032 3849     		ldr	r1, .L52+4
 716 0034 A300     		lsls	r3, r4, #2
 717 0036 1819     		adds	r0, r3, r4
 718 0038 4200     		lsls	r2, r0, #1
 719 003a 8818     		adds	r0, r1, r2
 720              	.LVL51:
 578:Generated_Source\PSoC5/cyfitter_cfg.c **** 			const void * CYDATA srcPtr = mc->src;
 579:Generated_Source\PSoC5/cyfitter_cfg.c **** 			uint16 CYDATA numBytes = mc->size;
 580:Generated_Source\PSoC5/cyfitter_cfg.c **** 			CYCONFIGCPY(destPtr, srcPtr, numBytes);
 721              		.loc 1 580 0 discriminator 3
 722 003c 8022     		movs	r2, #128
 723 003e 016F     		ldr	r1, [r0, #112]	@ unaligned
 724              	.LVL52:
 725 0040 C06E     		ldr	r0, [r0, #108]	@ unaligned
 726              	.LVL53:
 727 0042 FFF7FEFF 		bl	CYCONFIGCPY
 728              	.LVL54:
 729              	.LBE5:
 574:Generated_Source\PSoC5/cyfitter_cfg.c **** 		{
 730              		.loc 1 574 0 discriminator 3
 731 0046 0134     		adds	r4, r4, #1
 732              	.LVL55:
 733 0048 E4B2     		uxtb	r4, r4
 734              	.LVL56:
 735              	.L49:
 574:Generated_Source\PSoC5/cyfitter_cfg.c **** 		{
 736              		.loc 1 574 0 is_stmt 0 discriminator 1
 737 004a 002C     		cmp	r4, #0
 738 004c F1D0     		beq	.L50
 581:Generated_Source\PSoC5/cyfitter_cfg.c **** 		}
 582:Generated_Source\PSoC5/cyfitter_cfg.c **** 
 583:Generated_Source\PSoC5/cyfitter_cfg.c **** 		cfg_write_bytes32(cy_cfg_addr_table, cy_cfg_data_table);
 739              		.loc 1 583 0 is_stmt 1
 740 004e 3249     		ldr	r1, .L52+8
 741 0050 4FF09040 		mov	r0, #1207959552
 742 0054 FFF7FEFF 		bl	cfg_write_bytes32
ARM GAS  C:\Users\sinow\AppData\Local\Temp\ccf87WsY.s 			page 25


 743              	.LVL57:
 584:Generated_Source\PSoC5/cyfitter_cfg.c **** 
 585:Generated_Source\PSoC5/cyfitter_cfg.c **** 		/* Perform normal device configuration. Order is not critical for these items. */
 586:Generated_Source\PSoC5/cyfitter_cfg.c **** 		CY_SET_XTND_REG16((void CYFAR *)(CYREG_CAPSR_CFG0), 0x0300u);
 744              		.loc 1 586 0
 745 0058 4FF44072 		mov	r2, #768
 746 005c 2F4B     		ldr	r3, .L52+12
 747 005e 1A80     		strh	r2, [r3]	@ movhi
 587:Generated_Source\PSoC5/cyfitter_cfg.c **** 		CY_SET_XTND_REG8((void CYFAR *)(CYREG_DSM0_CR3), 0x0Au);
 748              		.loc 1 587 0
 749 0060 0A22     		movs	r2, #10
 750 0062 1133     		adds	r3, r3, #17
 751 0064 1A70     		strb	r2, [r3]
 588:Generated_Source\PSoC5/cyfitter_cfg.c **** 		CY_SET_XTND_REG16((void CYFAR *)(CYREG_LUT3_CR), 0x0303u);
 752              		.loc 1 588 0
 753 0066 40F20332 		movw	r2, #771
 754 006a 353B     		subs	r3, r3, #53
 755 006c 1A80     		strh	r2, [r3]	@ movhi
 589:Generated_Source\PSoC5/cyfitter_cfg.c **** 
 590:Generated_Source\PSoC5/cyfitter_cfg.c **** 		/* B0_P3_U1_CFG24 Starting address: CYDEV_UCFG_B0_P3_U1_CFG24 */
 591:Generated_Source\PSoC5/cyfitter_cfg.c **** 		CY_SET_XTND_REG32((void CYFAR *)(CYREG_B0_P3_U1_CFG24), 0x44040004u);
 756              		.loc 1 591 0
 757 006e 2C4A     		ldr	r2, .L52+16
 758 0070 03F52E43 		add	r3, r3, #44544
 759 0074 8A33     		adds	r3, r3, #138
 760 0076 1A60     		str	r2, [r3]
 592:Generated_Source\PSoC5/cyfitter_cfg.c **** 
 593:Generated_Source\PSoC5/cyfitter_cfg.c **** 		/* Enable digital routing */
 594:Generated_Source\PSoC5/cyfitter_cfg.c **** 		CY_SET_XTND_REG8((void CYFAR *)CYREG_BCTL0_BANK_CTL, CY_GET_XTND_REG8((void CYFAR *)CYREG_BCTL0_B
 761              		.loc 1 594 0
 762 0078 2A4A     		ldr	r2, .L52+20
 763 007a 1378     		ldrb	r3, [r2]	@ zero_extendqisi2
 764 007c 43F00203 		orr	r3, r3, #2
 765 0080 1370     		strb	r3, [r2]
 595:Generated_Source\PSoC5/cyfitter_cfg.c **** 		CY_SET_XTND_REG8((void CYFAR *)CYREG_BCTL1_BANK_CTL, CY_GET_XTND_REG8((void CYFAR *)CYREG_BCTL1_B
 766              		.loc 1 595 0
 767 0082 1032     		adds	r2, r2, #16
 768 0084 1378     		ldrb	r3, [r2]	@ zero_extendqisi2
 769 0086 43F00203 		orr	r3, r3, #2
 770 008a 1370     		strb	r3, [r2]
 596:Generated_Source\PSoC5/cyfitter_cfg.c **** 
 597:Generated_Source\PSoC5/cyfitter_cfg.c **** 		/* Enable UDB array */
 598:Generated_Source\PSoC5/cyfitter_cfg.c **** 		CY_SET_XTND_REG8((void CYFAR *)CYREG_PM_ACT_CFG0, CY_GET_XTND_REG8((void CYFAR *)CYREG_PM_ACT_CFG
 771              		.loc 1 598 0
 772 008c 264C     		ldr	r4, .L52+24
 773              	.LVL58:
 774 008e 2378     		ldrb	r3, [r4]	@ zero_extendqisi2
 775 0090 43F04003 		orr	r3, r3, #64
 776 0094 2370     		strb	r3, [r4]
 599:Generated_Source\PSoC5/cyfitter_cfg.c **** 		CY_SET_XTND_REG8((void CYFAR *)CYREG_PM_AVAIL_CR2, CY_GET_XTND_REG8((void CYFAR *)CYREG_PM_AVAIL_
 777              		.loc 1 599 0
 778 0096 A2F58632 		sub	r2, r2, #68608
 779 009a 513A     		subs	r2, r2, #81
 780 009c 1378     		ldrb	r3, [r2]	@ zero_extendqisi2
 781 009e 43F01003 		orr	r3, r3, #16
 782 00a2 1370     		strb	r3, [r2]
 783              	.LBE3:
ARM GAS  C:\Users\sinow\AppData\Local\Temp\ccf87WsY.s 			page 26


 600:Generated_Source\PSoC5/cyfitter_cfg.c **** 	}
 601:Generated_Source\PSoC5/cyfitter_cfg.c **** 
 602:Generated_Source\PSoC5/cyfitter_cfg.c **** 
 603:Generated_Source\PSoC5/cyfitter_cfg.c **** 	/* Perform second pass device configuration. These items must be configured in specific order afte
 604:Generated_Source\PSoC5/cyfitter_cfg.c **** 	CYCONFIGCPY((void CYFAR *)(CYREG_PRT0_DM0), (const void CYFAR *)(BS_IOPINS0_0_VAL), 8u);
 784              		.loc 1 604 0
 785 00a4 0822     		movs	r2, #8
 786 00a6 2149     		ldr	r1, .L52+28
 787 00a8 2148     		ldr	r0, .L52+32
 788 00aa FFF7FEFF 		bl	CYCONFIGCPY
 789              	.LVL59:
 605:Generated_Source\PSoC5/cyfitter_cfg.c **** 	CYCONFIGCPY((void CYFAR *)(CYREG_PRT1_DM0), (const void CYFAR *)(BS_IOPINS0_1_VAL), 8u);
 790              		.loc 1 605 0
 791 00ae 0822     		movs	r2, #8
 792 00b0 2049     		ldr	r1, .L52+36
 793 00b2 2148     		ldr	r0, .L52+40
 794 00b4 FFF7FEFF 		bl	CYCONFIGCPY
 795              	.LVL60:
 606:Generated_Source\PSoC5/cyfitter_cfg.c **** 	CYCONFIGCPY((void CYFAR *)(CYREG_PRT2_DM0), (const void CYFAR *)(BS_IOPINS0_2_VAL), 8u);
 796              		.loc 1 606 0
 797 00b8 0822     		movs	r2, #8
 798 00ba 2049     		ldr	r1, .L52+44
 799 00bc 2048     		ldr	r0, .L52+48
 800 00be FFF7FEFF 		bl	CYCONFIGCPY
 801              	.LVL61:
 607:Generated_Source\PSoC5/cyfitter_cfg.c **** 	CYCONFIGCPY((void CYFAR *)(CYREG_PRT4_DM0), (const void CYFAR *)(BS_IOPINS0_4_VAL), 8u);
 802              		.loc 1 607 0
 803 00c2 0822     		movs	r2, #8
 804 00c4 1F49     		ldr	r1, .L52+52
 805 00c6 2048     		ldr	r0, .L52+56
 806 00c8 FFF7FEFF 		bl	CYCONFIGCPY
 807              	.LVL62:
 608:Generated_Source\PSoC5/cyfitter_cfg.c **** 	CYCONFIGCPY((void CYFAR *)(CYREG_PRT5_DM0), (const void CYFAR *)(BS_IOPINS0_5_VAL), 8u);
 808              		.loc 1 608 0
 809 00cc 0822     		movs	r2, #8
 810 00ce 1F49     		ldr	r1, .L52+60
 811 00d0 1F48     		ldr	r0, .L52+64
 812 00d2 FFF7FEFF 		bl	CYCONFIGCPY
 813              	.LVL63:
 609:Generated_Source\PSoC5/cyfitter_cfg.c **** 	CYCONFIGCPY((void CYFAR *)(CYREG_PRT6_DM0), (const void CYFAR *)(BS_IOPINS0_6_VAL), 8u);
 814              		.loc 1 609 0
 815 00d6 0822     		movs	r2, #8
 816 00d8 1E49     		ldr	r1, .L52+68
 817 00da 1F48     		ldr	r0, .L52+72
 818 00dc FFF7FEFF 		bl	CYCONFIGCPY
 819              	.LVL64:
 610:Generated_Source\PSoC5/cyfitter_cfg.c **** 	/* Switch Boost to the precision bandgap reference from its internal reference */
 611:Generated_Source\PSoC5/cyfitter_cfg.c **** 	CY_SET_REG8((void CYXDATA *)CYREG_BOOST_CR2, (CY_GET_REG8((void CYXDATA *)CYREG_BOOST_CR2) | 0x08u
 820              		.loc 1 611 0
 821 00e0 1E4A     		ldr	r2, .L52+76
 822 00e2 1378     		ldrb	r3, [r2]	@ zero_extendqisi2
 823 00e4 43F00803 		orr	r3, r3, #8
 824 00e8 1370     		strb	r3, [r2]
 612:Generated_Source\PSoC5/cyfitter_cfg.c **** 
 613:Generated_Source\PSoC5/cyfitter_cfg.c **** 	/* Set Flash Cycles based on max possible frequency in case a glitch occurs during ClockSetup(). *
 614:Generated_Source\PSoC5/cyfitter_cfg.c **** 	CY_SET_XTND_REG8((void CYFAR *)(CYREG_CACHE_CC_CTL), (((CYDEV_INSTRUCT_CACHE_ENABLED) != 0) ? 0x61
 825              		.loc 1 614 0
ARM GAS  C:\Users\sinow\AppData\Local\Temp\ccf87WsY.s 			page 27


 826 00ea 1D4D     		ldr	r5, .L52+80
 827 00ec 6123     		movs	r3, #97
 828 00ee 2B70     		strb	r3, [r5]
 615:Generated_Source\PSoC5/cyfitter_cfg.c **** 	/* Setup clocks based on selections from Clock DWR */
 616:Generated_Source\PSoC5/cyfitter_cfg.c **** 	ClockSetup();
 829              		.loc 1 616 0
 830 00f0 FFF7FEFF 		bl	ClockSetup
 831              	.LVL65:
 617:Generated_Source\PSoC5/cyfitter_cfg.c **** 	/* Set Flash Cycles based on newly configured 24.00MHz Bus Clock. */
 618:Generated_Source\PSoC5/cyfitter_cfg.c **** 	CY_SET_XTND_REG8((void CYFAR *)(CYREG_CACHE_CC_CTL), (((CYDEV_INSTRUCT_CACHE_ENABLED) != 0) ? 0x81
 832              		.loc 1 618 0
 833 00f4 8123     		movs	r3, #129
 834 00f6 2B70     		strb	r3, [r5]
 619:Generated_Source\PSoC5/cyfitter_cfg.c **** 	CY_SET_XTND_REG8((void CYFAR *)(CYREG_PANTHER_WAITPIPE), 0x01u);
 835              		.loc 1 619 0
 836 00f8 0122     		movs	r2, #1
 837 00fa 1A4B     		ldr	r3, .L52+84
 838 00fc 1A70     		strb	r2, [r3]
 620:Generated_Source\PSoC5/cyfitter_cfg.c **** 
 621:Generated_Source\PSoC5/cyfitter_cfg.c **** 	/* Perform basic analog initialization to defaults */
 622:Generated_Source\PSoC5/cyfitter_cfg.c **** 	AnalogSetDefault();
 839              		.loc 1 622 0
 840 00fe FFF7FEFF 		bl	AnalogSetDefault
 841              	.LVL66:
 623:Generated_Source\PSoC5/cyfitter_cfg.c **** 
 624:Generated_Source\PSoC5/cyfitter_cfg.c **** 	/* Configure alternate active mode */
 625:Generated_Source\PSoC5/cyfitter_cfg.c **** 	CYCONFIGCPY((void CYFAR *)CYDEV_PM_STBY_BASE, (const void CYFAR *)CYDEV_PM_ACT_BASE, 14u);
 842              		.loc 1 625 0
 843 0102 0E22     		movs	r2, #14
 844 0104 2146     		mov	r1, r4
 845 0106 1848     		ldr	r0, .L52+88
 846 0108 FFF7FEFF 		bl	CYCONFIGCPY
 847              	.LVL67:
 848 010c 38BD     		pop	{r3, r4, r5, pc}
 849              	.L53:
 850 010e 00BF     		.align	2
 851              	.L52:
 852 0110 E8460040 		.word	1073759976
 853 0114 00000000 		.word	.LANCHOR0
 854 0118 88000048 		.word	1207959688
 855 011c 72580040 		.word	1073764466
 856 0120 04000444 		.word	1141112836
 857 0124 03500140 		.word	1073827843
 858 0128 A0430040 		.word	1073759136
 859 012c 0C060048 		.word	1207961100
 860 0130 02510040 		.word	1073762562
 861 0134 14060048 		.word	1207961108
 862 0138 12510040 		.word	1073762578
 863 013c 1C060048 		.word	1207961116
 864 0140 22510040 		.word	1073762594
 865 0144 24060048 		.word	1207961124
 866 0148 42510040 		.word	1073762626
 867 014c 2C060048 		.word	1207961132
 868 0150 52510040 		.word	1073762642
 869 0154 34060048 		.word	1207961140
 870 0158 62510040 		.word	1073762658
 871 015c 22430040 		.word	1073759010
ARM GAS  C:\Users\sinow\AppData\Local\Temp\ccf87WsY.s 			page 28


 872 0160 00480040 		.word	1073760256
 873 0164 04000840 		.word	1074266116
 874 0168 B0430040 		.word	1073759152
 875              		.cfi_endproc
 876              	.LFE12:
 877              		.size	cyfitter_cfg, .-cyfitter_cfg
 878              		.global	CapSense_CSD_AMuxCH0__maskTable
 879              		.global	CapSense_CSD_AMuxCH0__addrTable
 880              		.global	ADC_DelSig_1_AMux__maskTable
 881              		.global	ADC_DelSig_1_AMux__addrTable
 882              		.section	.rodata
 883              		.align	2
 884              		.set	.LANCHOR0,. + 0
 885              		.type	ADC_DelSig_1_AMux__addrTable, %object
 886              		.size	ADC_DelSig_1_AMux__addrTable, 8
 887              	ADC_DelSig_1_AMux__addrTable:
 888 0000 035B0040 		.word	1073765123
 889 0004 24430040 		.word	1073759012
 890              		.type	ADC_DelSig_1_AMux__maskTable, %object
 891              		.size	ADC_DelSig_1_AMux__maskTable, 2
 892              	ADC_DelSig_1_AMux__maskTable:
 893 0008 40       		.byte	64
 894 0009 00       		.byte	0
 895 000a 0000     		.space	2
 896              		.type	CapSense_CSD_AMuxCH0__addrTable, %object
 897              		.size	CapSense_CSD_AMuxCH0__addrTable, 32
 898              	CapSense_CSD_AMuxCH0__addrTable:
 899 000c 5C510040 		.word	1073762652
 900 0010 5C510040 		.word	1073762652
 901 0014 5C510040 		.word	1073762652
 902 0018 5C510040 		.word	1073762652
 903 001c 5C510040 		.word	1073762652
 904 0020 6C510040 		.word	1073762668
 905 0024 DB5A0040 		.word	1073765083
 906 0028 9B5A0040 		.word	1073765019
 907              		.type	CapSense_CSD_AMuxCH0__maskTable, %object
 908              		.size	CapSense_CSD_AMuxCH0__maskTable, 8
 909              	CapSense_CSD_AMuxCH0__maskTable:
 910 002c 01       		.byte	1
 911 002d 02       		.byte	2
 912 002e 04       		.byte	4
 913 002f 08       		.byte	8
 914 0030 10       		.byte	16
 915 0031 10       		.byte	16
 916 0032 01       		.byte	1
 917 0033 10       		.byte	16
 918              		.type	cfg_memset_list.5048, %object
 919              		.size	cfg_memset_list.5048, 54
 920              	cfg_memset_list.5048:
 921 0034 30510040 		.word	1073762608
 922 0038 1000     		.short	16
 923 003a C0510040 		.4byte	1073762752
 924 003e 1000     		.short	16
 925 0040 F0510040 		.word	1073762800
 926 0044 1000     		.short	16
 927 0046 00000140 		.4byte	1073807360
 928 004a 8002     		.short	640
ARM GAS  C:\Users\sinow\AppData\Local\Temp\ccf87WsY.s 			page 29


 929 004c 00030140 		.word	1073808128
 930 0050 000D     		.short	3328
 931 0052 00140140 		.4byte	1073812480
 932 0056 0008     		.short	2048
 933 0058 00400140 		.word	1073823744
 934 005c 000A     		.short	2560
 935 005e 004C0140 		.4byte	1073826816
 936 0062 0002     		.short	512
 937 0064 00500140 		.word	1073827840
 938 0068 2000     		.short	32
 939 006a 0000     		.space	2
 940              		.type	cfg_memcpy_list.5049, %object
 941              		.size	cfg_memcpy_list.5049, 10
 942              	cfg_memcpy_list.5049:
 943 006c 80020140 		.word	1073808000
 944 0070 8C050048 		.word	1207960972
 945 0074 8000     		.short	128
 946              		.text
 947              	.Letext0:
 948              		.file 2 "c:\\program files (x86)\\cypress\\psoc creator\\4.2\\psoc creator\\import\\gnu\\arm\\5.4.
 949              		.file 3 "Generated_Source\\PSoC5\\cytypes.h"
 950              		.file 4 "Generated_Source\\PSoC5\\CyLib.h"