ARM GAS  C:\Users\sinow\AppData\Local\Temp\cc2fTtvm.s 			page 1


   1              		.syntax unified
   2              		.cpu cortex-m3
   3              		.fpu softvfp
   4              		.eabi_attribute 20, 1
   5              		.eabi_attribute 21, 1
   6              		.eabi_attribute 23, 3
   7              		.eabi_attribute 24, 1
   8              		.eabi_attribute 25, 1
   9              		.eabi_attribute 26, 1
  10              		.eabi_attribute 30, 1
  11              		.eabi_attribute 34, 1
  12              		.eabi_attribute 18, 4
  13              		.thumb
  14              		.syntax unified
  15              		.file	"main.c"
  16              		.text
  17              	.Ltext0:
  18              		.cfi_sections	.debug_frame
  19              		.section	.text.CapSense_DisplayState,"ax",%progbits
  20              		.align	2
  21              		.global	CapSense_DisplayState
  22              		.thumb
  23              		.thumb_func
  24              		.type	CapSense_DisplayState, %function
  25              	CapSense_DisplayState:
  26              	.LFB64:
  27              		.file 1 "main.c"
   1:main.c        **** /*
   2:main.c        **** ELC 343 - Microcomputer Lab Final Project
   3:main.c        **** November 19, 2019
   4:main.c        **** Goal: controlling 3 servos and stepper motor to form a simple 
   5:main.c        **** 3-DOF robot arm, using touch sensor and potentiometer inputs
   6:main.c        **** Authors: Jordan Sinoway & Caleb McKinney
   7:main.c        **** */
   8:main.c        **** 
   9:main.c        **** 
  10:main.c        **** 
  11:main.c        **** #include "project.h"
  12:main.c        **** #include "stdio.h"
  13:main.c        **** #include "string.h"
  14:main.c        **** #include "math.h"
  15:main.c        **** 
  16:main.c        **** 
  17:main.c        **** #define STEP_DELAY (2) //defining global delay for stepper motor
  18:main.c        **** 
  19:main.c        **** 
  20:main.c        **** uint16 curPos, oldPos;
  21:main.c        **** 
  22:main.c        **** uint16 CapSense_DisplayState(void)
  23:main.c        **** {
  28              		.loc 1 23 0
  29              		.cfi_startproc
  30              		@ args = 0, pretend = 0, frame = 0
  31              		@ frame_needed = 0, uses_anonymous_args = 0
  32 0000 08B5     		push	{r3, lr}
  33              		.cfi_def_cfa_offset 8
  34              		.cfi_offset 3, -8
ARM GAS  C:\Users\sinow\AppData\Local\Temp\cc2fTtvm.s 			page 2


  35              		.cfi_offset 14, -4
  24:main.c        ****     curPos = CapSense_CSD_GetCentroidPos(CapSense_CSD_LINEARSLIDER0__LS); //find slider position
  36              		.loc 1 24 0
  37 0002 0020     		movs	r0, #0
  38 0004 FFF7FEFF 		bl	CapSense_CSD_GetCentroidPos
  39              	.LVL0:
  40 0008 014B     		ldr	r3, .L3
  41 000a 1880     		strh	r0, [r3]	@ movhi
  25:main.c        ****     
  26:main.c        ****     /*
  27:main.c        ****     if(curPos == 0xFFFFu) //reset position
  28:main.c        ****     {
  29:main.c        ****         curPos = 0u;
  30:main.c        ****     }
  31:main.c        ****     */
  32:main.c        ****     
  33:main.c        ****     return curPos;
  34:main.c        ****     
  35:main.c        **** }
  42              		.loc 1 35 0
  43 000c 08BD     		pop	{r3, pc}
  44              	.L4:
  45 000e 00BF     		.align	2
  46              	.L3:
  47 0010 00000000 		.word	curPos
  48              		.cfi_endproc
  49              	.LFE64:
  50              		.size	CapSense_DisplayState, .-CapSense_DisplayState
  51              		.section	.text.stepper,"ax",%progbits
  52              		.align	2
  53              		.global	stepper
  54              		.thumb
  55              		.thumb_func
  56              		.type	stepper, %function
  57              	stepper:
  58              	.LFB65:
  36:main.c        **** 
  37:main.c        **** 
  38:main.c        **** void stepper(int a, int b, int c, int d, int delay)
  39:main.c        **** {
  59              		.loc 1 39 0
  60              		.cfi_startproc
  61              		@ args = 4, pretend = 0, frame = 0
  62              		@ frame_needed = 0, uses_anonymous_args = 0
  63              	.LVL1:
  64 0000 70B5     		push	{r4, r5, r6, lr}
  65              		.cfi_def_cfa_offset 16
  66              		.cfi_offset 4, -16
  67              		.cfi_offset 5, -12
  68              		.cfi_offset 6, -8
  69              		.cfi_offset 14, -4
  70 0002 0E46     		mov	r6, r1
  71 0004 1546     		mov	r5, r2
  72 0006 1C46     		mov	r4, r3
  40:main.c        ****     A_Write(a);
  73              		.loc 1 40 0
  74 0008 C0B2     		uxtb	r0, r0
ARM GAS  C:\Users\sinow\AppData\Local\Temp\cc2fTtvm.s 			page 3


  75              	.LVL2:
  76 000a FFF7FEFF 		bl	A_Write
  77              	.LVL3:
  41:main.c        ****     B_Write(b);
  78              		.loc 1 41 0
  79 000e F0B2     		uxtb	r0, r6
  80 0010 FFF7FEFF 		bl	B_Write
  81              	.LVL4:
  42:main.c        ****     C_Write(c);
  82              		.loc 1 42 0
  83 0014 E8B2     		uxtb	r0, r5
  84 0016 FFF7FEFF 		bl	C_Write
  85              	.LVL5:
  43:main.c        ****     D_Write(d);
  86              		.loc 1 43 0
  87 001a E0B2     		uxtb	r0, r4
  88 001c FFF7FEFF 		bl	D_Write
  89              	.LVL6:
  44:main.c        ****     CyDelay(delay);
  90              		.loc 1 44 0
  91 0020 0498     		ldr	r0, [sp, #16]
  92 0022 FFF7FEFF 		bl	CyDelay
  93              	.LVL7:
  94 0026 70BD     		pop	{r4, r5, r6, pc}
  95              		.cfi_endproc
  96              	.LFE65:
  97              		.size	stepper, .-stepper
  98              		.section	.text.range_map,"ax",%progbits
  99              		.align	2
 100              		.global	range_map
 101              		.thumb
 102              		.thumb_func
 103              		.type	range_map, %function
 104              	range_map:
 105              	.LFB66:
  45:main.c        **** }
  46:main.c        **** 
  47:main.c        **** 
  48:main.c        **** int range_map(int x, int a, int b, int c, int d) // y = (x-a)((d-c)/(b-a)) + c   | range [a,b] | ra
  49:main.c        **** {
 106              		.loc 1 49 0
 107              		.cfi_startproc
 108              		@ args = 4, pretend = 0, frame = 0
 109              		@ frame_needed = 0, uses_anonymous_args = 0
 110              		@ link register save eliminated.
 111              	.LVL8:
 112 0000 10B4     		push	{r4}
 113              		.cfi_def_cfa_offset 4
 114              		.cfi_offset 4, -4
  50:main.c        ****     int mapped_out;                              //mapping function to convert 0-255 ADC (8-bit) ou
  51:main.c        ****     
  52:main.c        ****     mapped_out = ((x - a)*(d - c)/(b - a)) + c;
 115              		.loc 1 52 0
 116 0002 401A     		subs	r0, r0, r1
 117              	.LVL9:
 118 0004 019C     		ldr	r4, [sp, #4]
 119 0006 E41A     		subs	r4, r4, r3
ARM GAS  C:\Users\sinow\AppData\Local\Temp\cc2fTtvm.s 			page 4


 120 0008 04FB00F0 		mul	r0, r4, r0
 121 000c 521A     		subs	r2, r2, r1
 122              	.LVL10:
 123 000e 90FBF2F0 		sdiv	r0, r0, r2
 124              	.LVL11:
  53:main.c        ****     
  54:main.c        ****     return mapped_out;
  55:main.c        **** }
 125              		.loc 1 55 0
 126 0012 1844     		add	r0, r0, r3
 127              	.LVL12:
 128 0014 10BC     		pop	{r4}
 129              		.cfi_restore 4
 130              		.cfi_def_cfa_offset 0
 131              	.LVL13:
 132 0016 7047     		bx	lr
 133              		.cfi_endproc
 134              	.LFE66:
 135              		.size	range_map, .-range_map
 136              		.section	.text.main,"ax",%progbits
 137              		.align	2
 138              		.global	main
 139              		.thumb
 140              		.thumb_func
 141              		.type	main, %function
 142              	main:
 143              	.LFB67:
  56:main.c        **** 
  57:main.c        **** int main(void)
  58:main.c        **** {
 144              		.loc 1 58 0
 145              		.cfi_startproc
 146              		@ args = 0, pretend = 0, frame = 256
 147              		@ frame_needed = 0, uses_anonymous_args = 0
 148 0000 2DE9F043 		push	{r4, r5, r6, r7, r8, r9, lr}
 149              		.cfi_def_cfa_offset 28
 150              		.cfi_offset 4, -28
 151              		.cfi_offset 5, -24
 152              		.cfi_offset 6, -20
 153              		.cfi_offset 7, -16
 154              		.cfi_offset 8, -12
 155              		.cfi_offset 9, -8
 156              		.cfi_offset 14, -4
 157 0004 C3B0     		sub	sp, sp, #268
 158              		.cfi_def_cfa_offset 296
  59:main.c        ****     CyGlobalIntEnable; 
 159              		.loc 1 59 0
 160              		.syntax unified
 161              	@ 59 "main.c" 1
 162 0006 62B6     		CPSIE   i
 163              	@ 0 "" 2
  60:main.c        ****     
  61:main.c        ****     LCD_Char_1_Start();//initalizing lcd
 164              		.loc 1 61 0
 165              		.thumb
 166              		.syntax unified
 167 0008 FFF7FEFF 		bl	LCD_Char_1_Start
ARM GAS  C:\Users\sinow\AppData\Local\Temp\cc2fTtvm.s 			page 5


 168              	.LVL14:
  62:main.c        ****     char lcdOutput[256];//string for lcd display
  63:main.c        ****     
  64:main.c        ****     PWM_1_Start(); //start PWM block 1
 169              		.loc 1 64 0
 170 000c FFF7FEFF 		bl	PWM_1_Start
 171              	.LVL15:
  65:main.c        ****     ADC_SAR_1_Start(); //start SAR ADC 1
 172              		.loc 1 65 0
 173 0010 FFF7FEFF 		bl	ADC_SAR_1_Start
 174              	.LVL16:
  66:main.c        ****     PWM_2_Start(); //start PWM block 2
 175              		.loc 1 66 0
 176 0014 FFF7FEFF 		bl	PWM_2_Start
 177              	.LVL17:
  67:main.c        ****     ADC_SAR_2_Start(); //start SAR ADC 2
 178              		.loc 1 67 0
 179 0018 FFF7FEFF 		bl	ADC_SAR_2_Start
 180              	.LVL18:
  68:main.c        ****     ADC_DelSig_1_Start();
 181              		.loc 1 68 0
 182 001c FFF7FEFF 		bl	ADC_DelSig_1_Start
 183              	.LVL19:
  69:main.c        ****     PWM_3_Start();
 184              		.loc 1 69 0
 185 0020 FFF7FEFF 		bl	PWM_3_Start
 186              	.LVL20:
  70:main.c        ****     
  71:main.c        ****     CapSense_CSD_Start();
 187              		.loc 1 71 0
 188 0024 FFF7FEFF 		bl	CapSense_CSD_Start
 189              	.LVL21:
  72:main.c        ****     CapSense_CSD_InitializeAllBaselines();
 190              		.loc 1 72 0
 191 0028 FFF7FEFF 		bl	CapSense_CSD_InitializeAllBaselines
 192              	.LVL22:
  73:main.c        ****     
  74:main.c        ****  
  75:main.c        ****     
  76:main.c        ****     int val1; //initial adc output val
  77:main.c        ****     int val2;
  78:main.c        ****     int val3;
  79:main.c        ****     
  80:main.c        ****     int stepPos = 0;
 193              		.loc 1 80 0
 194 002c 0025     		movs	r5, #0
 195              	.LVL23:
 196              	.L13:
  81:main.c        ****     int targetPos = 0;
  82:main.c        ****     
  83:main.c        ****     int mapped_val1; //val post mapping
  84:main.c        ****     int mapped_val2;
  85:main.c        ****     int mapped_val3;
  86:main.c        ****      
  87:main.c        **** 
  88:main.c        ****     for(;;)
  89:main.c        ****     {
ARM GAS  C:\Users\sinow\AppData\Local\Temp\cc2fTtvm.s 			page 6


  90:main.c        ****         ADC_SAR_1_StartConvert();
 197              		.loc 1 90 0
 198 002e FFF7FEFF 		bl	ADC_SAR_1_StartConvert
 199              	.LVL24:
  91:main.c        ****         ADC_SAR_2_StartConvert(); //note: max amount of SAR ADCs is 2 on PSOC5 LP
 200              		.loc 1 91 0
 201 0032 FFF7FEFF 		bl	ADC_SAR_2_StartConvert
 202              	.LVL25:
  92:main.c        ****         ADC_DelSig_1_StartConvert();
 203              		.loc 1 92 0
 204 0036 FFF7FEFF 		bl	ADC_DelSig_1_StartConvert
 205              	.LVL26:
  93:main.c        ****         
  94:main.c        ****         
  95:main.c        ****         ADC_SAR_1_IsEndConversion(ADC_SAR_1_WAIT_FOR_RESULT); //wait for ADC output
 206              		.loc 1 95 0
 207 003a 0020     		movs	r0, #0
 208 003c FFF7FEFF 		bl	ADC_SAR_1_IsEndConversion
 209              	.LVL27:
  96:main.c        ****         ADC_SAR_2_IsEndConversion(ADC_SAR_2_WAIT_FOR_RESULT);
 210              		.loc 1 96 0
 211 0040 0020     		movs	r0, #0
 212 0042 FFF7FEFF 		bl	ADC_SAR_2_IsEndConversion
 213              	.LVL28:
  97:main.c        ****         ADC_DelSig_1_IsEndConversion(ADC_DelSig_1_WAIT_FOR_RESULT);
 214              		.loc 1 97 0
 215 0046 0020     		movs	r0, #0
 216 0048 FFF7FEFF 		bl	ADC_DelSig_1_IsEndConversion
 217              	.LVL29:
  98:main.c        ****         
  99:main.c        ****                 
 100:main.c        ****         if(0u == CapSense_CSD_IsBusy())
 218              		.loc 1 100 0
 219 004c FFF7FEFF 		bl	CapSense_CSD_IsBusy
 220              	.LVL30:
 221 0050 18B9     		cbnz	r0, .L10
 101:main.c        ****         {
 102:main.c        ****             CapSense_CSD_UpdateEnabledBaselines();
 222              		.loc 1 102 0
 223 0052 FFF7FEFF 		bl	CapSense_CSD_UpdateEnabledBaselines
 224              	.LVL31:
 103:main.c        ****             CapSense_CSD_ScanEnabledWidgets();
 225              		.loc 1 103 0
 226 0056 FFF7FEFF 		bl	CapSense_CSD_ScanEnabledWidgets
 227              	.LVL32:
 228              	.L10:
 104:main.c        ****         }
 105:main.c        ****         
 106:main.c        ****         val3 = CapSense_DisplayState();
 229              		.loc 1 106 0
 230 005a FFF7FEFF 		bl	CapSense_DisplayState
 231              	.LVL33:
 232 005e 8146     		mov	r9, r0
 233              	.LVL34:
 107:main.c        ****         
 108:main.c        ****         
 109:main.c        ****         val1 = (uint8_t) ADC_SAR_1_GetResult8(); //casting to uint8, as the input is int8 (bug)
ARM GAS  C:\Users\sinow\AppData\Local\Temp\cc2fTtvm.s 			page 7


 234              		.loc 1 109 0
 235 0060 FFF7FEFF 		bl	ADC_SAR_1_GetResult8
 236              	.LVL35:
 237 0064 5FFA80F8 		uxtb	r8, r0
 238              	.LVL36:
 110:main.c        ****         val2 = (uint8_t) ADC_SAR_2_GetResult8();
 239              		.loc 1 110 0
 240 0068 FFF7FEFF 		bl	ADC_SAR_2_GetResult8
 241              	.LVL37:
 242 006c C7B2     		uxtb	r7, r0
 243              	.LVL38:
 111:main.c        ****         targetPos = ADC_DelSig_1_GetResult32(); 
 244              		.loc 1 111 0
 245 006e FFF7FEFF 		bl	ADC_DelSig_1_GetResult32
 246              	.LVL39:
 247 0072 0446     		mov	r4, r0
 248              	.LVL40:
 112:main.c        ****         
 113:main.c        ****         mapped_val1 = range_map(val1, 0, 255, 850, 4500);//mapping 0-255 range of pot to 850-4500 r
 249              		.loc 1 113 0
 250 0074 41F29416 		movw	r6, #4500
 251 0078 0096     		str	r6, [sp]
 252 007a 40F25233 		movw	r3, #850
 253 007e FF22     		movs	r2, #255
 254 0080 0021     		movs	r1, #0
 255 0082 4046     		mov	r0, r8
 256              	.LVL41:
 257 0084 FFF7FEFF 		bl	range_map
 258              	.LVL42:
 259 0088 8046     		mov	r8, r0
 260              	.LVL43:
 114:main.c        ****         mapped_val2 = range_map(val2, 0, 255, 850, 4500);
 261              		.loc 1 114 0
 262 008a 0096     		str	r6, [sp]
 263 008c 40F25233 		movw	r3, #850
 264 0090 FF22     		movs	r2, #255
 265 0092 0021     		movs	r1, #0
 266 0094 3846     		mov	r0, r7
 267              	.LVL44:
 268 0096 FFF7FEFF 		bl	range_map
 269              	.LVL45:
 270 009a 0746     		mov	r7, r0
 271              	.LVL46:
 115:main.c        ****         mapped_val3 = range_map(val3, 10, 85, 850, 4400);
 272              		.loc 1 115 0
 273 009c 41F23013 		movw	r3, #4400
 274 00a0 0093     		str	r3, [sp]
 275 00a2 40F25233 		movw	r3, #850
 276 00a6 5522     		movs	r2, #85
 277 00a8 0A21     		movs	r1, #10
 278 00aa 4846     		mov	r0, r9
 279              	.LVL47:
 280 00ac FFF7FEFF 		bl	range_map
 281              	.LVL48:
 282 00b0 8146     		mov	r9, r0
 283              	.LVL49:
 116:main.c        ****         
ARM GAS  C:\Users\sinow\AppData\Local\Temp\cc2fTtvm.s 			page 8


 117:main.c        ****         PWM_1_WriteCompare(mapped_val1); //writing to pwm (servo)
 284              		.loc 1 117 0
 285 00b2 1FFA88F0 		uxth	r0, r8
 286              	.LVL50:
 287 00b6 FFF7FEFF 		bl	PWM_1_WriteCompare
 288              	.LVL51:
 118:main.c        ****         PWM_2_WriteCompare(mapped_val2);
 289              		.loc 1 118 0
 290 00ba B8B2     		uxth	r0, r7
 291 00bc FFF7FEFF 		bl	PWM_2_WriteCompare
 292              	.LVL52:
 119:main.c        ****         PWM_3_WriteCompare(mapped_val3);
 293              		.loc 1 119 0
 294 00c0 1FFA89F0 		uxth	r0, r9
 295 00c4 FFF7FEFF 		bl	PWM_3_WriteCompare
 296              	.LVL53:
 120:main.c        ****         
 121:main.c        ****         
 122:main.c        ****         if(stepPos < targetPos - 4) //clockwise motion, full wave stepping
 297              		.loc 1 122 0
 298 00c8 231F     		subs	r3, r4, #4
 299 00ca 9D42     		cmp	r5, r3
 300 00cc 39DA     		bge	.L11
 123:main.c        ****         {
 124:main.c        ****             stepper(1,0,0,0,STEP_DELAY);
 301              		.loc 1 124 0
 302 00ce 0226     		movs	r6, #2
 303 00d0 0096     		str	r6, [sp]
 304 00d2 0023     		movs	r3, #0
 305 00d4 1A46     		mov	r2, r3
 306 00d6 1946     		mov	r1, r3
 307 00d8 0120     		movs	r0, #1
 308 00da FFF7FEFF 		bl	stepper
 309              	.LVL54:
 125:main.c        ****             stepper(1,1,0,0,STEP_DELAY);
 310              		.loc 1 125 0
 311 00de 0096     		str	r6, [sp]
 312 00e0 0023     		movs	r3, #0
 313 00e2 1A46     		mov	r2, r3
 314 00e4 0121     		movs	r1, #1
 315 00e6 0846     		mov	r0, r1
 316 00e8 FFF7FEFF 		bl	stepper
 317              	.LVL55:
 126:main.c        ****             stepper(0,1,0,0,STEP_DELAY);
 318              		.loc 1 126 0
 319 00ec 0096     		str	r6, [sp]
 320 00ee 0023     		movs	r3, #0
 321 00f0 1A46     		mov	r2, r3
 322 00f2 0121     		movs	r1, #1
 323 00f4 1846     		mov	r0, r3
 324 00f6 FFF7FEFF 		bl	stepper
 325              	.LVL56:
 127:main.c        ****             stepper(0,1,1,0,STEP_DELAY);
 326              		.loc 1 127 0
 327 00fa 0096     		str	r6, [sp]
 328 00fc 0023     		movs	r3, #0
 329 00fe 0122     		movs	r2, #1
ARM GAS  C:\Users\sinow\AppData\Local\Temp\cc2fTtvm.s 			page 9


 330 0100 1146     		mov	r1, r2
 331 0102 1846     		mov	r0, r3
 332 0104 FFF7FEFF 		bl	stepper
 333              	.LVL57:
 128:main.c        ****             stepper(0,0,1,0,STEP_DELAY);
 334              		.loc 1 128 0
 335 0108 0096     		str	r6, [sp]
 336 010a 0023     		movs	r3, #0
 337 010c 0122     		movs	r2, #1
 338 010e 1946     		mov	r1, r3
 339 0110 1846     		mov	r0, r3
 340 0112 FFF7FEFF 		bl	stepper
 341              	.LVL58:
 129:main.c        ****             stepper(0,0,1,1,STEP_DELAY);
 342              		.loc 1 129 0
 343 0116 0096     		str	r6, [sp]
 344 0118 0123     		movs	r3, #1
 345 011a 1A46     		mov	r2, r3
 346 011c 0021     		movs	r1, #0
 347 011e 0846     		mov	r0, r1
 348 0120 FFF7FEFF 		bl	stepper
 349              	.LVL59:
 130:main.c        ****             stepper(0,0,0,1,STEP_DELAY);
 350              		.loc 1 130 0
 351 0124 0096     		str	r6, [sp]
 352 0126 0123     		movs	r3, #1
 353 0128 0022     		movs	r2, #0
 354 012a 1146     		mov	r1, r2
 355 012c 1046     		mov	r0, r2
 356 012e FFF7FEFF 		bl	stepper
 357              	.LVL60:
 131:main.c        ****             stepper(1,0,0,1,STEP_DELAY);
 358              		.loc 1 131 0
 359 0132 0096     		str	r6, [sp]
 360 0134 0123     		movs	r3, #1
 361 0136 0022     		movs	r2, #0
 362 0138 1146     		mov	r1, r2
 363 013a 1846     		mov	r0, r3
 364 013c FFF7FEFF 		bl	stepper
 365              	.LVL61:
 132:main.c        ****             
 133:main.c        ****             stepPos++;          
 366              		.loc 1 133 0
 367 0140 0135     		adds	r5, r5, #1
 368              	.LVL62:
 369              	.L11:
 134:main.c        ****         }
 135:main.c        ****         if(stepPos > targetPos + 4 ) //counter-clockwise motion, full wave stepping 
 370              		.loc 1 135 0
 371 0142 231D     		adds	r3, r4, #4
 372 0144 9D42     		cmp	r5, r3
 373 0146 39DD     		ble	.L12
 136:main.c        ****         {
 137:main.c        ****             stepper(0,0,0,1,STEP_DELAY);
 374              		.loc 1 137 0
 375 0148 0226     		movs	r6, #2
 376 014a 0096     		str	r6, [sp]
ARM GAS  C:\Users\sinow\AppData\Local\Temp\cc2fTtvm.s 			page 10


 377 014c 0123     		movs	r3, #1
 378 014e 0022     		movs	r2, #0
 379 0150 1146     		mov	r1, r2
 380 0152 1046     		mov	r0, r2
 381 0154 FFF7FEFF 		bl	stepper
 382              	.LVL63:
 138:main.c        ****             stepper(0,0,1,1,STEP_DELAY);
 383              		.loc 1 138 0
 384 0158 0096     		str	r6, [sp]
 385 015a 0123     		movs	r3, #1
 386 015c 1A46     		mov	r2, r3
 387 015e 0021     		movs	r1, #0
 388 0160 0846     		mov	r0, r1
 389 0162 FFF7FEFF 		bl	stepper
 390              	.LVL64:
 139:main.c        ****             stepper(0,0,1,0,STEP_DELAY);
 391              		.loc 1 139 0
 392 0166 0096     		str	r6, [sp]
 393 0168 0023     		movs	r3, #0
 394 016a 0122     		movs	r2, #1
 395 016c 1946     		mov	r1, r3
 396 016e 1846     		mov	r0, r3
 397 0170 FFF7FEFF 		bl	stepper
 398              	.LVL65:
 140:main.c        ****             stepper(0,1,1,0,STEP_DELAY);
 399              		.loc 1 140 0
 400 0174 0096     		str	r6, [sp]
 401 0176 0023     		movs	r3, #0
 402 0178 0122     		movs	r2, #1
 403 017a 1146     		mov	r1, r2
 404 017c 1846     		mov	r0, r3
 405 017e FFF7FEFF 		bl	stepper
 406              	.LVL66:
 141:main.c        ****             stepper(0,1,0,0,STEP_DELAY);
 407              		.loc 1 141 0
 408 0182 0096     		str	r6, [sp]
 409 0184 0023     		movs	r3, #0
 410 0186 1A46     		mov	r2, r3
 411 0188 0121     		movs	r1, #1
 412 018a 1846     		mov	r0, r3
 413 018c FFF7FEFF 		bl	stepper
 414              	.LVL67:
 142:main.c        ****             stepper(1,1,0,0,STEP_DELAY);
 415              		.loc 1 142 0
 416 0190 0096     		str	r6, [sp]
 417 0192 0023     		movs	r3, #0
 418 0194 1A46     		mov	r2, r3
 419 0196 0121     		movs	r1, #1
 420 0198 0846     		mov	r0, r1
 421 019a FFF7FEFF 		bl	stepper
 422              	.LVL68:
 143:main.c        ****             stepper(1,0,0,0,STEP_DELAY);
 423              		.loc 1 143 0
 424 019e 0096     		str	r6, [sp]
 425 01a0 0023     		movs	r3, #0
 426 01a2 1A46     		mov	r2, r3
 427 01a4 1946     		mov	r1, r3
ARM GAS  C:\Users\sinow\AppData\Local\Temp\cc2fTtvm.s 			page 11


 428 01a6 0120     		movs	r0, #1
 429 01a8 FFF7FEFF 		bl	stepper
 430              	.LVL69:
 144:main.c        ****             stepper(1,0,0,1,STEP_DELAY);
 431              		.loc 1 144 0
 432 01ac 0096     		str	r6, [sp]
 433 01ae 0123     		movs	r3, #1
 434 01b0 0022     		movs	r2, #0
 435 01b2 1146     		mov	r1, r2
 436 01b4 1846     		mov	r0, r3
 437 01b6 FFF7FEFF 		bl	stepper
 438              	.LVL70:
 145:main.c        ****             
 146:main.c        ****             stepPos--;
 439              		.loc 1 146 0
 440 01ba 013D     		subs	r5, r5, #1
 441              	.LVL71:
 442              	.L12:
 147:main.c        ****         }
 148:main.c        ****         
 149:main.c        ****                   
 150:main.c        ****             LCD_Char_1_ClearDisplay(); //clears display
 443              		.loc 1 150 0
 444 01bc 0120     		movs	r0, #1
 445 01be FFF7FEFF 		bl	LCD_Char_1_WriteControl
 446              	.LVL72:
 151:main.c        ****             LCD_Char_1_WriteControl(LCD_Char_1_CURSOR_HOME); //sets cursor to top left corner
 447              		.loc 1 151 0
 448 01c2 0220     		movs	r0, #2
 449 01c4 FFF7FEFF 		bl	LCD_Char_1_WriteControl
 450              	.LVL73:
 152:main.c        ****             sprintf(lcdOutput,"targ=%3d", (int)targetPos);
 451              		.loc 1 152 0
 452 01c8 2246     		mov	r2, r4
 453 01ca 1249     		ldr	r1, .L15
 454 01cc 02A8     		add	r0, sp, #8
 455 01ce FFF7FEFF 		bl	sprintf
 456              	.LVL74:
 153:main.c        ****             LCD_Char_1_Position(0,0); 
 457              		.loc 1 153 0
 458 01d2 0021     		movs	r1, #0
 459 01d4 0846     		mov	r0, r1
 460 01d6 FFF7FEFF 		bl	LCD_Char_1_Position
 461              	.LVL75:
 154:main.c        ****             LCD_Char_1_PrintString(lcdOutput); //prints PWM value for servo 1
 462              		.loc 1 154 0
 463 01da 02A8     		add	r0, sp, #8
 464 01dc FFF7FEFF 		bl	LCD_Char_1_PrintString
 465              	.LVL76:
 155:main.c        ****             
 156:main.c        ****             sprintf(lcdOutput,"Val2=%d", (int)mapped_val2);
 466              		.loc 1 156 0
 467 01e0 3A46     		mov	r2, r7
 468 01e2 0D49     		ldr	r1, .L15+4
 469 01e4 02A8     		add	r0, sp, #8
 470 01e6 FFF7FEFF 		bl	sprintf
 471              	.LVL77:
ARM GAS  C:\Users\sinow\AppData\Local\Temp\cc2fTtvm.s 			page 12


 157:main.c        ****             LCD_Char_1_Position(1,0); 
 472              		.loc 1 157 0
 473 01ea 0021     		movs	r1, #0
 474 01ec 0120     		movs	r0, #1
 475 01ee FFF7FEFF 		bl	LCD_Char_1_Position
 476              	.LVL78:
 158:main.c        ****             LCD_Char_1_PrintString(lcdOutput); //prints PWM value for servo 1
 477              		.loc 1 158 0
 478 01f2 02A8     		add	r0, sp, #8
 479 01f4 FFF7FEFF 		bl	LCD_Char_1_PrintString
 480              	.LVL79:
 159:main.c        ****             
 160:main.c        ****             sprintf(lcdOutput,"Val3=%d", (int)mapped_val3);
 481              		.loc 1 160 0
 482 01f8 4A46     		mov	r2, r9
 483 01fa 0849     		ldr	r1, .L15+8
 484 01fc 02A8     		add	r0, sp, #8
 485 01fe FFF7FEFF 		bl	sprintf
 486              	.LVL80:
 161:main.c        ****             LCD_Char_1_Position(8,0); 
 487              		.loc 1 161 0
 488 0202 0021     		movs	r1, #0
 489 0204 0820     		movs	r0, #8
 490 0206 FFF7FEFF 		bl	LCD_Char_1_Position
 491              	.LVL81:
 162:main.c        ****             LCD_Char_1_PrintString(lcdOutput); //prints PWM value for servo 1
 492              		.loc 1 162 0
 493 020a 02A8     		add	r0, sp, #8
 494 020c FFF7FEFF 		bl	LCD_Char_1_PrintString
 495              	.LVL82:
 163:main.c        ****             
 164:main.c        ****             
 165:main.c        ****         /*
 166:main.c        ****         due to SAR ADC # limits, possibly add switching buttons to switch between controlling
 167:main.c        ****         different servos with a single potentiometer, and use sliding CapSense for claw control
 168:main.c        ****         */
 169:main.c        ****             
 170:main.c        **** 
 171:main.c        ****         
 172:main.c        ****         
 173:main.c        ****     }
 496              		.loc 1 173 0
 497 0210 0DE7     		b	.L13
 498              	.L16:
 499 0212 00BF     		.align	2
 500              	.L15:
 501 0214 00000000 		.word	.LC0
 502 0218 0C000000 		.word	.LC1
 503 021c 14000000 		.word	.LC2
 504              		.cfi_endproc
 505              	.LFE67:
 506              		.size	main, .-main
 507              		.comm	oldPos,2,2
 508              		.comm	curPos,2,2
 509              		.section	.rodata.str1.4,"aMS",%progbits,1
 510              		.align	2
 511              	.LC0:
ARM GAS  C:\Users\sinow\AppData\Local\Temp\cc2fTtvm.s 			page 13


 512 0000 74617267 		.ascii	"targ=%3d\000"
 512      3D253364 
 512      00
 513 0009 000000   		.space	3
 514              	.LC1:
 515 000c 56616C32 		.ascii	"Val2=%d\000"
 515      3D256400 
 516              	.LC2:
 517 0014 56616C33 		.ascii	"Val3=%d\000"
 517      3D256400 
 518              		.text
 519              	.Letext0:
 520              		.file 2 "c:\\program files (x86)\\cypress\\psoc creator\\4.2\\psoc creator\\import\\gnu\\arm\\5.4.
 521              		.file 3 "c:\\program files (x86)\\cypress\\psoc creator\\4.2\\psoc creator\\import\\gnu\\arm\\5.4.
 522              		.file 4 "Generated_Source\\PSoC5/cytypes.h"
 523              		.file 5 "Generated_Source\\PSoC5/core_cm3.h"
 524              		.file 6 "Generated_Source\\PSoC5/CapSense_CSD_CSHL.h"
 525              		.file 7 "Generated_Source\\PSoC5/A.h"
 526              		.file 8 "Generated_Source\\PSoC5/B.h"
 527              		.file 9 "Generated_Source\\PSoC5/C.h"
 528              		.file 10 "Generated_Source\\PSoC5/D.h"
 529              		.file 11 "Generated_Source\\PSoC5/CyLib.h"
 530              		.file 12 "Generated_Source\\PSoC5/LCD_Char_1.h"
 531              		.file 13 "Generated_Source\\PSoC5/PWM_1.h"
 532              		.file 14 "Generated_Source\\PSoC5/ADC_SAR_1.h"
 533              		.file 15 "Generated_Source\\PSoC5/PWM_2.h"
 534              		.file 16 "Generated_Source\\PSoC5/ADC_SAR_2.h"
 535              		.file 17 "Generated_Source\\PSoC5/ADC_DelSig_1.h"
 536              		.file 18 "Generated_Source\\PSoC5/PWM_3.h"
 537              		.file 19 "Generated_Source\\PSoC5/CapSense_CSD.h"
 538              		.file 20 "c:\\program files (x86)\\cypress\\psoc creator\\4.2\\psoc creator\\import\\gnu\\arm\\5.4