ARM GAS  C:\Users\sinow\AppData\Local\Temp\ccEqUh1p.s 			page 1


   1              		.syntax unified
   2              		.cpu cortex-m3
   3              		.fpu softvfp
   4              		.eabi_attribute 20, 1
   5              		.eabi_attribute 21, 1
   6              		.eabi_attribute 23, 3
   7              		.eabi_attribute 24, 1
   8              		.eabi_attribute 25, 1
   9              		.eabi_attribute 26, 1
  10              		.eabi_attribute 30, 1
  11              		.eabi_attribute 34, 1
  12              		.eabi_attribute 18, 4
  13              		.thumb
  14              		.syntax unified
  15              		.file	"main.c"
  16              		.text
  17              	.Ltext0:
  18              		.cfi_sections	.debug_frame
  19              		.global	__aeabi_i2d
  20              		.global	__aeabi_dmul
  21              		.global	__aeabi_d2iz
  22              		.section	.text.stepperCW,"ax",%progbits
  23              		.align	2
  24              		.global	stepperCW
  25              		.thumb
  26              		.thumb_func
  27              		.type	stepperCW, %function
  28              	stepperCW:
  29              	.LFB64:
  30              		.file 1 "main.c"
   1:main.c        **** /*
   2:main.c        **** Robotic Arm Demo 
   3:main.c        **** 1/20/20
   4:main.c        **** Goal: controlling 3 servos and stepper motor to form a simple 
   5:main.c        **** 3-DOF robot arm, using touch sensor and potentiometer inputs
   6:main.c        **** Authors: Jordan Sinoway
   7:main.c        **** */
   8:main.c        **** 
   9:main.c        **** 
  10:main.c        **** 
  11:main.c        **** #include "project.h"
  12:main.c        **** #include "stdio.h"
  13:main.c        **** #include "string.h"
  14:main.c        **** #include "math.h"
  15:main.c        **** 
  16:main.c        **** 
  17:main.c        **** #define STEP_DELAY (1) //defining global delay for stepper motor
  18:main.c        **** 
  19:main.c        **** 
  20:main.c        **** 
  21:main.c        **** void stepperCW(int degrees) //full wave stepping of stepper motor, 8 consecutive CW steps
  22:main.c        **** {
  31              		.loc 1 22 0
  32              		.cfi_startproc
  33              		@ args = 0, pretend = 0, frame = 0
  34              		@ frame_needed = 0, uses_anonymous_args = 0
  35              	.LVL0:
ARM GAS  C:\Users\sinow\AppData\Local\Temp\ccEqUh1p.s 			page 2


  36 0000 38B5     		push	{r3, r4, r5, lr}
  37              		.cfi_def_cfa_offset 16
  38              		.cfi_offset 3, -16
  39              		.cfi_offset 4, -12
  40              		.cfi_offset 5, -8
  41              		.cfi_offset 14, -4
  42 0002 0546     		mov	r5, r0
  23:main.c        ****     int actualDegree = degrees * 0.703125;
  43              		.loc 1 23 0
  44 0004 FFF7FEFF 		bl	__aeabi_i2d
  45              	.LVL1:
  46 0008 0022     		movs	r2, #0
  47 000a 1E4B     		ldr	r3, .L5
  48 000c FFF7FEFF 		bl	__aeabi_dmul
  49              	.LVL2:
  50 0010 FFF7FEFF 		bl	__aeabi_d2iz
  51              	.LVL3:
  24:main.c        ****     int correctedTurn = degrees+(degrees - actualDegree);
  52              		.loc 1 24 0
  53 0014 C0EB4505 		rsb	r5, r0, r5, lsl #1
  54              	.LVL4:
  55              	.LBB2:
  25:main.c        ****     
  26:main.c        ****     for(int i = 0; i < correctedTurn; i++)
  56              		.loc 1 26 0
  57 0018 0024     		movs	r4, #0
  58 001a 30E0     		b	.L2
  59              	.LVL5:
  60              	.L3:
  27:main.c        ****     {
  28:main.c        ****         Stepper_Write(0x8); // 1 0 0 0
  61              		.loc 1 28 0 discriminator 3
  62 001c 0820     		movs	r0, #8
  63 001e FFF7FEFF 		bl	Stepper_Write
  64              	.LVL6:
  29:main.c        ****         CyDelay(STEP_DELAY);
  65              		.loc 1 29 0 discriminator 3
  66 0022 0120     		movs	r0, #1
  67 0024 FFF7FEFF 		bl	CyDelay
  68              	.LVL7:
  30:main.c        ****         Stepper_Write(0xC); // 1 1 0 0
  69              		.loc 1 30 0 discriminator 3
  70 0028 0C20     		movs	r0, #12
  71 002a FFF7FEFF 		bl	Stepper_Write
  72              	.LVL8:
  31:main.c        ****         CyDelay(STEP_DELAY);
  73              		.loc 1 31 0 discriminator 3
  74 002e 0120     		movs	r0, #1
  75 0030 FFF7FEFF 		bl	CyDelay
  76              	.LVL9:
  32:main.c        ****         Stepper_Write(0x4); // 0 1 0 0 
  77              		.loc 1 32 0 discriminator 3
  78 0034 0420     		movs	r0, #4
  79 0036 FFF7FEFF 		bl	Stepper_Write
  80              	.LVL10:
  33:main.c        ****         CyDelay(STEP_DELAY);
  81              		.loc 1 33 0 discriminator 3
ARM GAS  C:\Users\sinow\AppData\Local\Temp\ccEqUh1p.s 			page 3


  82 003a 0120     		movs	r0, #1
  83 003c FFF7FEFF 		bl	CyDelay
  84              	.LVL11:
  34:main.c        ****         Stepper_Write(0x6); // 0 1 1 0
  85              		.loc 1 34 0 discriminator 3
  86 0040 0620     		movs	r0, #6
  87 0042 FFF7FEFF 		bl	Stepper_Write
  88              	.LVL12:
  35:main.c        ****         CyDelay(STEP_DELAY);
  89              		.loc 1 35 0 discriminator 3
  90 0046 0120     		movs	r0, #1
  91 0048 FFF7FEFF 		bl	CyDelay
  92              	.LVL13:
  36:main.c        ****         Stepper_Write(0x2); // 0 0 1 0 
  93              		.loc 1 36 0 discriminator 3
  94 004c 0220     		movs	r0, #2
  95 004e FFF7FEFF 		bl	Stepper_Write
  96              	.LVL14:
  37:main.c        ****         CyDelay(STEP_DELAY);
  97              		.loc 1 37 0 discriminator 3
  98 0052 0120     		movs	r0, #1
  99 0054 FFF7FEFF 		bl	CyDelay
 100              	.LVL15:
  38:main.c        ****         Stepper_Write(0x3); // 0 0 1 1
 101              		.loc 1 38 0 discriminator 3
 102 0058 0320     		movs	r0, #3
 103 005a FFF7FEFF 		bl	Stepper_Write
 104              	.LVL16:
  39:main.c        ****         CyDelay(STEP_DELAY);
 105              		.loc 1 39 0 discriminator 3
 106 005e 0120     		movs	r0, #1
 107 0060 FFF7FEFF 		bl	CyDelay
 108              	.LVL17:
  40:main.c        ****         Stepper_Write(0x1); // 0 0 0 1
 109              		.loc 1 40 0 discriminator 3
 110 0064 0120     		movs	r0, #1
 111 0066 FFF7FEFF 		bl	Stepper_Write
 112              	.LVL18:
  41:main.c        ****         CyDelay(STEP_DELAY);
 113              		.loc 1 41 0 discriminator 3
 114 006a 0120     		movs	r0, #1
 115 006c FFF7FEFF 		bl	CyDelay
 116              	.LVL19:
  42:main.c        ****         Stepper_Write(0x9); // 1 0 0 1
 117              		.loc 1 42 0 discriminator 3
 118 0070 0920     		movs	r0, #9
 119 0072 FFF7FEFF 		bl	Stepper_Write
 120              	.LVL20:
  43:main.c        ****         CyDelay(STEP_DELAY);
 121              		.loc 1 43 0 discriminator 3
 122 0076 0120     		movs	r0, #1
 123 0078 FFF7FEFF 		bl	CyDelay
 124              	.LVL21:
  26:main.c        ****     {
 125              		.loc 1 26 0 discriminator 3
 126 007c 0134     		adds	r4, r4, #1
 127              	.LVL22:
ARM GAS  C:\Users\sinow\AppData\Local\Temp\ccEqUh1p.s 			page 4


 128              	.L2:
  26:main.c        ****     {
 129              		.loc 1 26 0 is_stmt 0 discriminator 1
 130 007e AC42     		cmp	r4, r5
 131 0080 CCDB     		blt	.L3
 132              	.LBE2:
  44:main.c        ****     }
  45:main.c        **** }
 133              		.loc 1 45 0 is_stmt 1
 134 0082 38BD     		pop	{r3, r4, r5, pc}
 135              	.LVL23:
 136              	.L6:
 137              		.align	2
 138              	.L5:
 139 0084 0080E63F 		.word	1072070656
 140              		.cfi_endproc
 141              	.LFE64:
 142              		.size	stepperCW, .-stepperCW
 143              		.section	.text.stepperCCW,"ax",%progbits
 144              		.align	2
 145              		.global	stepperCCW
 146              		.thumb
 147              		.thumb_func
 148              		.type	stepperCCW, %function
 149              	stepperCCW:
 150              	.LFB65:
  46:main.c        **** 
  47:main.c        **** void stepperCCW(int degrees)
  48:main.c        **** {
 151              		.loc 1 48 0
 152              		.cfi_startproc
 153              		@ args = 0, pretend = 0, frame = 0
 154              		@ frame_needed = 0, uses_anonymous_args = 0
 155              	.LVL24:
 156 0000 38B5     		push	{r3, r4, r5, lr}
 157              		.cfi_def_cfa_offset 16
 158              		.cfi_offset 3, -16
 159              		.cfi_offset 4, -12
 160              		.cfi_offset 5, -8
 161              		.cfi_offset 14, -4
 162 0002 0546     		mov	r5, r0
  49:main.c        ****     int actualDegree = degrees * 0.703125;
 163              		.loc 1 49 0
 164 0004 FFF7FEFF 		bl	__aeabi_i2d
 165              	.LVL25:
 166 0008 0022     		movs	r2, #0
 167 000a 1E4B     		ldr	r3, .L11
 168 000c FFF7FEFF 		bl	__aeabi_dmul
 169              	.LVL26:
 170 0010 FFF7FEFF 		bl	__aeabi_d2iz
 171              	.LVL27:
  50:main.c        ****     int correctedTurn = degrees+(degrees - actualDegree);
 172              		.loc 1 50 0
 173 0014 C0EB4505 		rsb	r5, r0, r5, lsl #1
 174              	.LVL28:
 175              	.LBB3:
  51:main.c        ****     
ARM GAS  C:\Users\sinow\AppData\Local\Temp\ccEqUh1p.s 			page 5


  52:main.c        ****     for(int i = 0; i < correctedTurn; i++)
 176              		.loc 1 52 0
 177 0018 0024     		movs	r4, #0
 178 001a 30E0     		b	.L8
 179              	.LVL29:
 180              	.L9:
  53:main.c        ****     {
  54:main.c        ****         Stepper_Write(0x1); // 0 0 0 1
 181              		.loc 1 54 0 discriminator 3
 182 001c 0120     		movs	r0, #1
 183 001e FFF7FEFF 		bl	Stepper_Write
 184              	.LVL30:
  55:main.c        ****         CyDelay(STEP_DELAY);
 185              		.loc 1 55 0 discriminator 3
 186 0022 0120     		movs	r0, #1
 187 0024 FFF7FEFF 		bl	CyDelay
 188              	.LVL31:
  56:main.c        ****         Stepper_Write(0x3); // 0 0 1 1
 189              		.loc 1 56 0 discriminator 3
 190 0028 0320     		movs	r0, #3
 191 002a FFF7FEFF 		bl	Stepper_Write
 192              	.LVL32:
  57:main.c        ****         CyDelay(STEP_DELAY);
 193              		.loc 1 57 0 discriminator 3
 194 002e 0120     		movs	r0, #1
 195 0030 FFF7FEFF 		bl	CyDelay
 196              	.LVL33:
  58:main.c        ****         Stepper_Write(0x2); // 0 0 1 0
 197              		.loc 1 58 0 discriminator 3
 198 0034 0220     		movs	r0, #2
 199 0036 FFF7FEFF 		bl	Stepper_Write
 200              	.LVL34:
  59:main.c        ****         CyDelay(STEP_DELAY);
 201              		.loc 1 59 0 discriminator 3
 202 003a 0120     		movs	r0, #1
 203 003c FFF7FEFF 		bl	CyDelay
 204              	.LVL35:
  60:main.c        ****         Stepper_Write(0x6); // 0 1 1 0
 205              		.loc 1 60 0 discriminator 3
 206 0040 0620     		movs	r0, #6
 207 0042 FFF7FEFF 		bl	Stepper_Write
 208              	.LVL36:
  61:main.c        ****         CyDelay(STEP_DELAY);
 209              		.loc 1 61 0 discriminator 3
 210 0046 0120     		movs	r0, #1
 211 0048 FFF7FEFF 		bl	CyDelay
 212              	.LVL37:
  62:main.c        ****         Stepper_Write(0x4); // 0 1 0 0 
 213              		.loc 1 62 0 discriminator 3
 214 004c 0420     		movs	r0, #4
 215 004e FFF7FEFF 		bl	Stepper_Write
 216              	.LVL38:
  63:main.c        ****         CyDelay(STEP_DELAY);
 217              		.loc 1 63 0 discriminator 3
 218 0052 0120     		movs	r0, #1
 219 0054 FFF7FEFF 		bl	CyDelay
 220              	.LVL39:
ARM GAS  C:\Users\sinow\AppData\Local\Temp\ccEqUh1p.s 			page 6


  64:main.c        ****         Stepper_Write(0xC); // 1 1 0 0
 221              		.loc 1 64 0 discriminator 3
 222 0058 0C20     		movs	r0, #12
 223 005a FFF7FEFF 		bl	Stepper_Write
 224              	.LVL40:
  65:main.c        ****         CyDelay(STEP_DELAY);
 225              		.loc 1 65 0 discriminator 3
 226 005e 0120     		movs	r0, #1
 227 0060 FFF7FEFF 		bl	CyDelay
 228              	.LVL41:
  66:main.c        ****         Stepper_Write(0x8); // 1 0 0 0
 229              		.loc 1 66 0 discriminator 3
 230 0064 0820     		movs	r0, #8
 231 0066 FFF7FEFF 		bl	Stepper_Write
 232              	.LVL42:
  67:main.c        ****         CyDelay(STEP_DELAY);
 233              		.loc 1 67 0 discriminator 3
 234 006a 0120     		movs	r0, #1
 235 006c FFF7FEFF 		bl	CyDelay
 236              	.LVL43:
  68:main.c        ****         Stepper_Write(0x9); // 1 0 0 1
 237              		.loc 1 68 0 discriminator 3
 238 0070 0920     		movs	r0, #9
 239 0072 FFF7FEFF 		bl	Stepper_Write
 240              	.LVL44:
  69:main.c        ****         CyDelay(STEP_DELAY);
 241              		.loc 1 69 0 discriminator 3
 242 0076 0120     		movs	r0, #1
 243 0078 FFF7FEFF 		bl	CyDelay
 244              	.LVL45:
  52:main.c        ****     {
 245              		.loc 1 52 0 discriminator 3
 246 007c 0134     		adds	r4, r4, #1
 247              	.LVL46:
 248              	.L8:
  52:main.c        ****     {
 249              		.loc 1 52 0 is_stmt 0 discriminator 1
 250 007e AC42     		cmp	r4, r5
 251 0080 CCDB     		blt	.L9
 252              	.LBE3:
  70:main.c        ****     }
  71:main.c        **** }
 253              		.loc 1 71 0 is_stmt 1
 254 0082 38BD     		pop	{r3, r4, r5, pc}
 255              	.LVL47:
 256              	.L12:
 257              		.align	2
 258              	.L11:
 259 0084 0080E63F 		.word	1072070656
 260              		.cfi_endproc
 261              	.LFE65:
 262              		.size	stepperCCW, .-stepperCCW
 263              		.section	.text.main,"ax",%progbits
 264              		.align	2
 265              		.global	main
 266              		.thumb
 267              		.thumb_func
ARM GAS  C:\Users\sinow\AppData\Local\Temp\ccEqUh1p.s 			page 7


 268              		.type	main, %function
 269              	main:
 270              	.LFB66:
  72:main.c        **** 
  73:main.c        **** 
  74:main.c        **** 
  75:main.c        **** 
  76:main.c        **** 
  77:main.c        **** int main(void)
  78:main.c        **** {
 271              		.loc 1 78 0
 272              		.cfi_startproc
 273              		@ Volatile: function does not return.
 274              		@ args = 0, pretend = 0, frame = 0
 275              		@ frame_needed = 0, uses_anonymous_args = 0
 276 0000 08B5     		push	{r3, lr}
 277              		.cfi_def_cfa_offset 8
 278              		.cfi_offset 3, -8
 279              		.cfi_offset 14, -4
  79:main.c        ****     CyGlobalIntEnable; 
 280              		.loc 1 79 0
 281              		.syntax unified
 282              	@ 79 "main.c" 1
 283 0002 62B6     		CPSIE   i
 284              	@ 0 "" 2
  80:main.c        ****     
  81:main.c        ****     PWM_1_Start(); //start PWM block 1
 285              		.loc 1 81 0
 286              		.thumb
 287              		.syntax unified
 288 0004 FFF7FEFF 		bl	PWM_1_Start
 289              	.LVL48:
  82:main.c        ****     PWM_2_Start(); //start PWM block 2
 290              		.loc 1 82 0
 291 0008 FFF7FEFF 		bl	PWM_2_Start
 292              	.LVL49:
  83:main.c        ****     PWM_3_Start();
 293              		.loc 1 83 0
 294 000c FFF7FEFF 		bl	PWM_3_Start
 295              	.LVL50:
 296              	.L14:
  84:main.c        ****    
  85:main.c        ****     for(;;)
  86:main.c        ****     {
  87:main.c        ****         stepperCCW(100);
 297              		.loc 1 87 0 discriminator 1
 298 0010 6420     		movs	r0, #100
 299 0012 FFF7FEFF 		bl	stepperCCW
 300              	.LVL51:
  88:main.c        ****         PWM_2_WriteCompare(2000);
 301              		.loc 1 88 0 discriminator 1
 302 0016 4FF4FA60 		mov	r0, #2000
 303 001a FFF7FEFF 		bl	PWM_2_WriteCompare
 304              	.LVL52:
  89:main.c        ****         CyDelay(450);
 305              		.loc 1 89 0 discriminator 1
 306 001e 4FF4E170 		mov	r0, #450
ARM GAS  C:\Users\sinow\AppData\Local\Temp\ccEqUh1p.s 			page 8


 307 0022 FFF7FEFF 		bl	CyDelay
 308              	.LVL53:
  90:main.c        ****         PWM_1_WriteCompare(3000);
 309              		.loc 1 90 0 discriminator 1
 310 0026 40F6B830 		movw	r0, #3000
 311 002a FFF7FEFF 		bl	PWM_1_WriteCompare
 312              	.LVL54:
  91:main.c        ****         CyDelay(450);
 313              		.loc 1 91 0 discriminator 1
 314 002e 4FF4E170 		mov	r0, #450
 315 0032 FFF7FEFF 		bl	CyDelay
 316              	.LVL55:
  92:main.c        ****         PWM_2_WriteCompare(2200);
 317              		.loc 1 92 0 discriminator 1
 318 0036 40F69800 		movw	r0, #2200
 319 003a FFF7FEFF 		bl	PWM_2_WriteCompare
 320              	.LVL56:
  93:main.c        ****         CyDelay(450);
 321              		.loc 1 93 0 discriminator 1
 322 003e 4FF4E170 		mov	r0, #450
 323 0042 FFF7FEFF 		bl	CyDelay
 324              	.LVL57:
  94:main.c        ****         PWM_1_WriteCompare(2800);
 325              		.loc 1 94 0 discriminator 1
 326 0046 4FF42F60 		mov	r0, #2800
 327 004a FFF7FEFF 		bl	PWM_1_WriteCompare
 328              	.LVL58:
  95:main.c        ****         CyDelay(450);
 329              		.loc 1 95 0 discriminator 1
 330 004e 4FF4E170 		mov	r0, #450
 331 0052 FFF7FEFF 		bl	CyDelay
 332              	.LVL59:
  96:main.c        ****         
  97:main.c        ****         stepperCW(50);
 333              		.loc 1 97 0 discriminator 1
 334 0056 3220     		movs	r0, #50
 335 0058 FFF7FEFF 		bl	stepperCW
 336              	.LVL60:
  98:main.c        ****         
  99:main.c        ****         PWM_2_WriteCompare(2400);
 337              		.loc 1 99 0 discriminator 1
 338 005c 4FF41660 		mov	r0, #2400
 339 0060 FFF7FEFF 		bl	PWM_2_WriteCompare
 340              	.LVL61:
 100:main.c        ****         CyDelay(450);
 341              		.loc 1 100 0 discriminator 1
 342 0064 4FF4E170 		mov	r0, #450
 343 0068 FFF7FEFF 		bl	CyDelay
 344              	.LVL62:
 101:main.c        ****         PWM_1_WriteCompare(2600);
 345              		.loc 1 101 0 discriminator 1
 346 006c 40F62820 		movw	r0, #2600
 347 0070 FFF7FEFF 		bl	PWM_1_WriteCompare
 348              	.LVL63:
 102:main.c        ****         CyDelay(450);
 349              		.loc 1 102 0 discriminator 1
 350 0074 4FF4E170 		mov	r0, #450
ARM GAS  C:\Users\sinow\AppData\Local\Temp\ccEqUh1p.s 			page 9


 351 0078 FFF7FEFF 		bl	CyDelay
 352              	.LVL64:
 103:main.c        ****         PWM_2_WriteCompare(2600);
 353              		.loc 1 103 0 discriminator 1
 354 007c 40F62820 		movw	r0, #2600
 355 0080 FFF7FEFF 		bl	PWM_2_WriteCompare
 356              	.LVL65:
 104:main.c        ****         CyDelay(450);
 357              		.loc 1 104 0 discriminator 1
 358 0084 4FF4E170 		mov	r0, #450
 359 0088 FFF7FEFF 		bl	CyDelay
 360              	.LVL66:
 105:main.c        ****         PWM_1_WriteCompare(2400);
 361              		.loc 1 105 0 discriminator 1
 362 008c 4FF41660 		mov	r0, #2400
 363 0090 FFF7FEFF 		bl	PWM_1_WriteCompare
 364              	.LVL67:
 106:main.c        ****         CyDelay(450);
 365              		.loc 1 106 0 discriminator 1
 366 0094 4FF4E170 		mov	r0, #450
 367 0098 FFF7FEFF 		bl	CyDelay
 368              	.LVL68:
 107:main.c        ****         
 108:main.c        ****         stepperCCW(50);
 369              		.loc 1 108 0 discriminator 1
 370 009c 3220     		movs	r0, #50
 371 009e FFF7FEFF 		bl	stepperCCW
 372              	.LVL69:
 109:main.c        ****         
 110:main.c        ****         PWM_2_WriteCompare(2800);
 373              		.loc 1 110 0 discriminator 1
 374 00a2 4FF42F60 		mov	r0, #2800
 375 00a6 FFF7FEFF 		bl	PWM_2_WriteCompare
 376              	.LVL70:
 111:main.c        ****         CyDelay(450);
 377              		.loc 1 111 0 discriminator 1
 378 00aa 4FF4E170 		mov	r0, #450
 379 00ae FFF7FEFF 		bl	CyDelay
 380              	.LVL71:
 112:main.c        ****         PWM_1_WriteCompare(2200);
 381              		.loc 1 112 0 discriminator 1
 382 00b2 40F69800 		movw	r0, #2200
 383 00b6 FFF7FEFF 		bl	PWM_1_WriteCompare
 384              	.LVL72:
 113:main.c        ****         CyDelay(450);
 385              		.loc 1 113 0 discriminator 1
 386 00ba 4FF4E170 		mov	r0, #450
 387 00be FFF7FEFF 		bl	CyDelay
 388              	.LVL73:
 114:main.c        ****         PWM_2_WriteCompare(3000);
 389              		.loc 1 114 0 discriminator 1
 390 00c2 40F6B830 		movw	r0, #3000
 391 00c6 FFF7FEFF 		bl	PWM_2_WriteCompare
 392              	.LVL74:
 115:main.c        ****         CyDelay(450);
 393              		.loc 1 115 0 discriminator 1
 394 00ca 4FF4E170 		mov	r0, #450
ARM GAS  C:\Users\sinow\AppData\Local\Temp\ccEqUh1p.s 			page 10


 395 00ce FFF7FEFF 		bl	CyDelay
 396              	.LVL75:
 116:main.c        ****         PWM_1_WriteCompare(2000);
 397              		.loc 1 116 0 discriminator 1
 398 00d2 4FF4FA60 		mov	r0, #2000
 399 00d6 FFF7FEFF 		bl	PWM_1_WriteCompare
 400              	.LVL76:
 117:main.c        ****         CyDelay(450);
 401              		.loc 1 117 0 discriminator 1
 402 00da 4FF4E170 		mov	r0, #450
 403 00de FFF7FEFF 		bl	CyDelay
 404              	.LVL77:
 118:main.c        ****         
 119:main.c        ****         PWM_3_WriteCompare(1000);
 405              		.loc 1 119 0 discriminator 1
 406 00e2 4FF47A70 		mov	r0, #1000
 407 00e6 FFF7FEFF 		bl	PWM_3_WriteCompare
 408              	.LVL78:
 120:main.c        ****         CyDelay(450);
 409              		.loc 1 120 0 discriminator 1
 410 00ea 4FF4E170 		mov	r0, #450
 411 00ee FFF7FEFF 		bl	CyDelay
 412              	.LVL79:
 121:main.c        ****         PWM_3_WriteCompare(4000);
 413              		.loc 1 121 0 discriminator 1
 414 00f2 4FF47A60 		mov	r0, #4000
 415 00f6 FFF7FEFF 		bl	PWM_3_WriteCompare
 416              	.LVL80:
 122:main.c        ****         CyDelay(450);
 417              		.loc 1 122 0 discriminator 1
 418 00fa 4FF4E170 		mov	r0, #450
 419 00fe FFF7FEFF 		bl	CyDelay
 420              	.LVL81:
 123:main.c        ****               
 124:main.c        ****         stepperCW(100);
 421              		.loc 1 124 0 discriminator 1
 422 0102 6420     		movs	r0, #100
 423 0104 FFF7FEFF 		bl	stepperCW
 424              	.LVL82:
 125:main.c        ****         CyDelay(200);
 425              		.loc 1 125 0 discriminator 1
 426 0108 C820     		movs	r0, #200
 427 010a FFF7FEFF 		bl	CyDelay
 428              	.LVL83:
 429 010e 7FE7     		b	.L14
 430              		.cfi_endproc
 431              	.LFE66:
 432              		.size	main, .-main
 433              		.text
 434              	.Letext0:
 435              		.file 2 "c:\\program files (x86)\\cypress\\psoc creator\\4.2\\psoc creator\\import\\gnu\\arm\\5.4.
 436              		.file 3 "c:\\program files (x86)\\cypress\\psoc creator\\4.2\\psoc creator\\import\\gnu\\arm\\5.4.
 437              		.file 4 "Generated_Source\\PSoC5/Stepper.h"
 438              		.file 5 "Generated_Source\\PSoC5/CyLib.h"
 439              		.file 6 "Generated_Source\\PSoC5/PWM_1.h"
 440              		.file 7 "Generated_Source\\PSoC5/PWM_2.h"
 441              		.file 8 "Generated_Source\\PSoC5/PWM_3.h"
ARM GAS  C:\Users\sinow\AppData\Local\Temp\ccEqUh1p.s 			page 11


 442              		.file 9 "Generated_Source\\PSoC5/core_cm3.h"